Archive member included because of file (symbol)

..\mesh_common\mesh\libraries\CSR102x_A05\libcsrmesh.a(csr_mesh.o)
                              depend_Release_CSR102x_A05\core_mesh_handler.o (CSRmeshRegisterAppCallback)
..\mesh_common\mesh\libraries\CSR102x_A05\libcsrmesh.a(csr_mesh_masp_mcp_common.o)
                              ..\mesh_common\mesh\libraries\CSR102x_A05\libcsrmesh.a(csr_mesh.o) (___libcsrmesh_215)
..\mesh_common\mesh\libraries\CSR102x_A05\libcsrmesh.a(csr_mesh_mtl.o)
                              ..\mesh_common\mesh\libraries\CSR102x_A05\libcsrmesh.a(csr_mesh.o) (___libcsrmesh_269)
..\mesh_common\mesh\libraries\CSR102x_A05\libcsrmesh.a(csr_mesh_ec_alloc.o)
                              ..\mesh_common\mesh\libraries\CSR102x_A05\libcsrmesh.a(csr_mesh.o) (___libcsrmesh_118)
..\mesh_common\mesh\libraries\CSR102x_A05\libcsrmesh.a(csr_mesh_masp.o)
                              ..\mesh_common\mesh\libraries\CSR102x_A05\libcsrmesh.a(csr_mesh.o) (___libcsrmesh_212)
..\mesh_common\mesh\libraries\CSR102x_A05\libcsrmesh.a(csr_mesh_mcp.o)
                              ..\mesh_common\mesh\libraries\CSR102x_A05\libcsrmesh.a(csr_mesh.o) (___libcsrmesh_243)
..\mesh_common\mesh\libraries\CSR102x_A05\libcsrmesh.a(csr_mesh_sha256_get_results.o)
                              ..\mesh_common\mesh\libraries\CSR102x_A05\libcsrmesh.a(csr_mesh_masp_mcp_common.o) (___libcsrmesh_297)
..\mesh_common\mesh\libraries\CSR102x_A05\libcsrmesh.a(csr_mesh_sha256_hmac.o)
                              ..\mesh_common\mesh\libraries\CSR102x_A05\libcsrmesh.a(csr_mesh_masp_mcp_common.o) (___libcsrmesh_308)
..\mesh_common\mesh\libraries\CSR102x_A05\libcsrmesh.a(csr_mesh_sha256_initialise.o)
                              ..\mesh_common\mesh\libraries\CSR102x_A05\libcsrmesh.a(csr_mesh_masp_mcp_common.o) (___libcsrmesh_311)
..\mesh_common\mesh\libraries\CSR102x_A05\libcsrmesh.a(csr_mesh_sha256_process_data.o)
                              ..\mesh_common\mesh\libraries\CSR102x_A05\libcsrmesh.a(csr_mesh_sha256_hmac.o) (___libcsrmesh_317)
..\mesh_common\mesh\libraries\CSR102x_A05\libcsrmesh.a(csr_mesh_bearer.o)
                              ..\mesh_common\mesh\libraries\CSR102x_A05\libcsrmesh.a(csr_mesh_mtl.o) (___libcsrmesh_335)
..\mesh_common\mesh\libraries\CSR102x_A05\libcsrmesh.a(csr_mesh_bearer_porting_util.o)
                              ..\mesh_common\mesh\libraries\CSR102x_A05\libcsrmesh.a(csr_mesh_bearer.o) (___libcsrmesh_353)
..\mesh_common\mesh\libraries\CSR102x_A05\libcsrmesh.a(csr1010_scheduler.o)
                              ..\mesh_common\mesh\libraries\CSR102x_A05\libcsrmesh.a(csr_mesh_bearer_porting_util.o) (IsCSRSchedRunning)
..\mesh_common\mesh\libraries\CSR102x_A05\libcsrmesh.a(csr_mesh_hal_ifce.o)
                              ..\mesh_common\mesh\libraries\CSR102x_A05\libcsrmesh.a(csr_mesh_masp.o) (___libcsrmesh_363)
..\mesh_common\mesh\libraries\CSR102x_A05\libcsrmesh.a(csr_mesh_security_ifce_101x.o)
                              ..\mesh_common\mesh\libraries\CSR102x_A05\libcsrmesh.a(csr_mesh_mtl.o) (___libcsrmesh_371)
..\mesh_common\mesh\libraries\CSR102x_A05\libcsrmesh.a(csr_mesh_config_model.o)
                              ..\mesh_common\mesh\libraries\CSR102x_A05\libcsrmesh.a(csr_mesh_mcp.o) (ConfigModelInit)
..\mesh_common\mesh\libraries\CSR102x_A05\libcsrmesh.a(csr_mesh_bearer_model.o)
                              ..\mesh_common\mesh\libraries\CSR102x_A05\libcsrmesh.a(csr_mesh_mcp.o) (BearerModelInit)
..\mesh_common\mesh\libraries\CSR102x_A05\libcsrmesh.a(csr_mesh_ec_math.o)
                              ..\mesh_common\mesh\libraries\CSR102x_A05\libcsrmesh.a(csr_mesh_masp.o) (___libcsrmesh_127)
..\mesh_common\mesh\libraries\CSR102x_A05\libcsrmesh.a(csr_mesh_group_model.o)
                              ..\mesh_common\mesh\libraries\CSR102x_A05\libcsrmesh.a(csr_mesh_mcp.o) (GroupModelInit)
..\mesh_common\mesh\libraries\CSR102x_A05\libcsrmesh.a(csr_mesh_large_num.o)
                              ..\mesh_common\mesh\libraries\CSR102x_A05\libcsrmesh.a(csr_mesh_ec_math.o) (___libcsrmesh_161)
..\mesh_common\mesh\libraries\CSR102x_A05\libcsrmesh.a(csr_mesh_sha_add_to_cache.o)
                              ..\mesh_common\mesh\libraries\CSR102x_A05\libcsrmesh.a(csr_mesh_sha256_get_results.o) (___libcsrmesh_286)
..\mesh_common\mesh\libraries\CSR102x_A05\libcsrmesh.a(csr_mesh_sha256_calc_ith_hash_val.o)
                              ..\mesh_common\mesh\libraries\CSR102x_A05\libcsrmesh.a(csr_mesh_sha256_process_data.o) (___libcsrmesh_292)
..\mesh_common\mesh\libraries\CSR102x_A05\liblight_client.a(light_client.o)
                              depend_Release_CSR102x_A05\app_mesh_handler.o (LightSetLevel)
..\mesh_common\mesh\libraries\CSR102x_A05\libpower_client.a(power_client.o)
                              depend_Release_CSR102x_A05\app_mesh_handler.o (PowerSetState)
..\mesh_common\mesh\libraries\CSR102x_A05\libswitch_server.a(switch_model.o)
                              depend_Release_CSR102x_A05\app_mesh_handler.o (SwitchModelInit)
..\mesh_common\mesh\libraries\CSR102x_A05\libextension_server.a(extension_model.o)
                              depend_Release_CSR102x_A05\extension_model_handler.o (ExtensionModelInit)
..\mesh_common\mesh\libraries\CSR102x_A05\libextension_server.a(extension_server_exception.o)
                              depend_Release_CSR102x_A05\extension_model_handler.o (ExtensionServerSetupOpcodeList)
..\mesh_common\mesh\libraries\CSR102x_A05\libextension_client.a(extension_client.o)
                              depend_Release_CSR102x_A05\extension_model_handler.o (ExtensionModelClientInit)
..\mesh_common\mesh\libraries\CSR102x_A05\libextension_client.a(extension_client_exception.o)
                              depend_Release_CSR102x_A05\extension_model_handler.o (ExtensionClientSetupOpcodeList)
..\mesh_common\mesh\libraries\CSR102x_A05\libtime_client.a(time_client.o)
                              depend_Release_CSR102x_A05\time_model_handler.o (TimeModelClientInit)
..\mesh_common\mesh\libraries\CSR102x_A05\libtime_server.a(time_model.o)
                              depend_Release_CSR102x_A05\time_model_handler.o (TimeModelInit)
..\mesh_common\mesh\libraries\CSR102x_A05\libtime_server.a(time_server_exception.o)
                              depend_Release_CSR102x_A05\time_model_handler.o (TimeBroadcast)
..\mesh_common\mesh\libraries\CSR102x_A05\libaction_server.a(action_model.o)
                              depend_Release_CSR102x_A05\action_model_handler.o (ActionModelInit)
..\mesh_common\mesh\libraries\CSR102x_A05\libaction_server.a(action_server_exception.o)
                              ..\mesh_common\mesh\libraries\CSR102x_A05\libaction_server.a(action_model.o) (___libaction_server_473)
..\mesh_common\mesh\libraries\CSR102x_A05\libwatchdog_server.a(watchdog_model.o)
                              depend_Release_CSR102x_A05\watchdog_model_handler.o (WatchdogMessage)
..\mesh_common\mesh\libraries\CSR102x_A05\libping_server.a(ping_model.o)
                              depend_Release_CSR102x_A05\app_mesh_handler.o (PingModelInit)
..\mesh_common\mesh\libraries\CSR102x_A05\libping_server.a(ping_server_exception.o)
                              ..\mesh_common\mesh\libraries\CSR102x_A05\libping_server.a(ping_model.o) (___libping_server_468)
..\mesh_common\mesh\libraries\CSR102x_A05\libattention_server.a(attention_model.o)
                              depend_Release_CSR102x_A05\attention_model_handler.o (AttentionModelInit)
..\mesh_common\mesh\libraries\CSR102x_A05\libdata_server.a(data_model.o)
                              depend_Release_CSR102x_A05\data_model_handler.o (DataModelInit)
..\mesh_common\mesh\libraries\CSR102x_A05\libdata_client.a(data_client.o)
                              depend_Release_CSR102x_A05\data_model_handler.o (DataStreamSend)
..\mesh_common\mesh\libraries\CSR102x_A05\libbattery_server.a(battery_model.o)
                              depend_Release_CSR102x_A05\battery_hw.o (BatteryState)
..\mesh_common\mesh\libraries\CSR102x_A05\liblargeobjecttransfer_server.a(largeobjecttransfer_model.o)
                              depend_Release_CSR102x_A05\largeobjecttransfer_model_handler.o (LargeObjectTransferModelInit)
..\mesh_common\mesh\libraries\CSR102x_A05\liblargeobjecttransfer_server.a(largeobjecttransfer_server_exception.o)
                              ..\mesh_common\mesh\libraries\CSR102x_A05\liblargeobjecttransfer_server.a(largeobjecttransfer_model.o) (___liblargeobjecttransfer_server_468)
D:\CSR102x_SDK-3.1.1\tools\lib\CSR102x_A05\libgatt_lib_ram.a(patch_ls.o)
                              depend_Release_CSR102x_A05\cm_hal.o (LsConnectionUpdateSignallingRsp)
D:\CSR102x_SDK-3.1.1\tools\lib\CSR102x_A05\libgatt_lib_ram.a(patch_gatt_api.o)
                              depend_Release_CSR102x_A05\cm_server.o (GattAccessRsp)
D:\CSR102x_SDK-3.1.1\tools\lib\CSR102x_A05\libgatt_lib_ram.a(sm_ram.o)
                              depend_Release_CSR102x_A05\cm_hal.o (SMInit)
D:\CSR102x_SDK-3.1.1\tools\lib\CSR102x_A05\libgatt_lib_ram.a(sm_key_req_api.o)
                              depend_Release_CSR102x_A05\cm_hal.o (SMKeyRequestRsp)
D:\CSR102x_SDK-3.1.1\tools\lib\CSR102x_A05\libgatt_lib_ram.a(sm_div_approval_api.o)
                              depend_Release_CSR102x_A05\cm_hal.o (SMDivApprovalRsp)
D:\CSR102x_SDK-3.1.1\tools\lib\CSR102x_A05\libgatt_lib_ram.a(sm_pairing_auth_api.o)
                              depend_Release_CSR102x_A05\cm_hal.o (SMPairingAuthRsp)
D:\CSR102x_SDK-3.1.1\tools\lib\CSR102x_A05\libgatt_lib_ram.a(sm_ltk_api.o)
                              depend_Release_CSR102x_A05\cm_hal.o (SMLongTermKeyRsp)
D:\CSR102x_SDK-3.1.1\tools\lib\CSR102x_A05\libgatt_lib_ram.a(patch_sm_l2cap_if.o)
                              D:\CSR102x_SDK-3.1.1\tools\lib\CSR102x_A05\libgatt_lib_ram.a(sm_key_req_api.o) (___libgatt_lib_db_5469)
D:\CSR102x_SDK-3.1.1\tools\lib\CSR102x_A05\libgatt_lib_ram.a(patch_sm_api.o)
                              depend_Release_CSR102x_A05\cm_hal.o (SMPasskeyInputNegRsp)
D:\CSR102x_SDK-3.1.1\tools\lib\CSR102x_A05\libgatt_lib_ram.a(patch_george_rx.o)
                              D:\CSR102x_SDK-3.1.1\tools\lib\CSR102x_A05\libgatt_lib_ram.a(patch_ls.o) (___libgatt_lib_db_5510)
D:\CSR102x_SDK-3.1.1\tools\lib\CSR102x_A05\libgatt_lib_ram.a(patch_george_rssi.o)
                              D:\CSR102x_SDK-3.1.1\tools\lib\CSR102x_A05\libgatt_lib_ram.a(patch_ls.o) (___libgatt_lib_db_5517)
D:\CSR102x_SDK-3.1.1\tools\lib\CSR102x_A05\libgatt_lib_ram.a(patch_reset.o)
                              (patch_sysop_sleep_restore)
D:\CSR102x_SDK-3.1.1\tools\lib\CSR102x_A05\libgatt_lib_ram.a(patch_flashheart_d06.o)
                              (hw_patch)
D:\CSR102x_SDK-3.1.1\tools\lib\CSR102x_A05\libgatt_lib_ram.a(id_ram.o)
                              (ram_build_identifier_string)
D:\CSR102x_SDK-3.1.1\tools\lib\CSR102x_A05\libgatt_lib_ram.a(sw_patch_ram.o)
                              D:\CSR102x_SDK-3.1.1\tools\lib\CSR102x_A05\libgatt_lib_ram.a(patch_ls.o) (__PATCH__ZERO_)
D:\CSR102x_SDK-3.1.1\tools\lib\CSR102x_A05\libgatt_lib_ram.a(patch_storage_api.o)
                              depend_Release_CSR102x_A05\largeobjecttransfer_model_handler.o (Storage_GetStoreInfo)
D:\CSR102x_SDK-3.1.1\tools\lib\CSR102x_A05\libgatt_lib_ram.a(configstore_api.o)
                              depend_Release_CSR102x_A05\gaia_otau.o (ConfigStoreReadKey)
D:\CSR102x_SDK-3.1.1\tools\lib\CSR102x_A05\libgatt_lib_ram.a(patch_configstore.o)
                              D:\CSR102x_SDK-3.1.1\tools\lib\CSR102x_A05\libgatt_lib_ram.a(sw_patch_ram.o) (___libgatt_lib_db_5559)
D:\CSR102x_SDK-3.1.1\tools\lib\CSR102x_A05\libgatt_lib_ram.a(userstore_api.o)
                              depend_Release_CSR102x_A05\nvm_access.o (Userstore_Write)
D:\CSR102x_SDK-3.1.1\tools\lib\CSR102x_A05\libgatt_lib_ram.a(patch_sysop_fht.o)
                              D:\CSR102x_SDK-3.1.1\tools\lib\CSR102x_A05\libgatt_lib_ram.a(sw_patch_ram.o) (___libgatt_lib_db_5561)
D:\CSR102x_SDK-3.1.1\tools\lib\CSR102x_A05\libgatt_lib_ram.a(app_proxy_crt.o)
                              (_app_store_header_fw_init)
D:\CSR102x_SDK-3.1.1\tools\lib\CSR102x_A05\libgatt_lib_ram.a(patch_uci_carlos_map.o)
                              D:\CSR102x_SDK-3.1.1\tools\lib\CSR102x_A05\libgatt_lib_ram.a(sw_patch_ram.o) (___libgatt_lib_db_5567)
D:\CSR102x_SDK-3.1.1\tools\lib\CSR102x_A05\libgatt_lib_ram.a(patch_uci_uart_h4.o)
                              D:\CSR102x_SDK-3.1.1\tools\lib\CSR102x_A05\libgatt_lib_ram.a(sw_patch_ram.o) (___libgatt_lib_db_5571)
D:\CSR102x_SDK-3.1.1\tools\lib\CSR102x_A05\libgatt_lib_ram.a(patch_store_update_api.o)
                              depend_Release_CSR102x_A05\gaia_otau.o (StoreUpdate_RunAppOnce)
D:\CSR102x_SDK-3.1.1\tools\lib\CSR102x_A05\libgatt_lib_ram.a(patch_rand.o)
                              D:\CSR102x_SDK-3.1.1\tools\lib\CSR102x_A05\libgatt_lib_ram.a(sw_patch_ram.o) (___libgatt_lib_db_5583)
D:\CSR102x_SDK-3.1.1\tools\lib\CSR102x_A05\libgatt_lib_ram.a(patch_edge_capture.o)
                              D:\CSR102x_SDK-3.1.1\tools\lib\CSR102x_A05\libgatt_lib_ram.a(patch_reset.o) (___libgatt_lib_db_5589)
D:\CSR102x_SDK-3.1.1\tools\lib\CSR102x_A05\libgatt_lib_ram.a(patch_uart.o)
                              D:\CSR102x_SDK-3.1.1\tools\lib\CSR102x_A05\libgatt_lib_ram.a(patch_reset.o) (___libgatt_lib_db_5594)
D:\CSR102x_SDK-3.1.1\tools\lib\CSR102x_A05\libgatt_lib_ram.a(patch_keyscan.o)
                              D:\CSR102x_SDK-3.1.1\tools\lib\CSR102x_A05\libgatt_lib_ram.a(patch_reset.o) (___libgatt_lib_db_5601)
D:\CSR102x_SDK-3.1.1\tools\lib\CSR102x_A05\libgatt_lib_ram.a(patch_ir.o)
                              D:\CSR102x_SDK-3.1.1\tools\lib\CSR102x_A05\libgatt_lib_ram.a(patch_reset.o) (___libgatt_lib_db_5605)
D:\CSR102x_SDK-3.1.1\tools\lib\CSR102x_A05\libgatt_lib_ram.a(patch_sysop_clock_fht.o)
                              D:\CSR102x_SDK-3.1.1\tools\lib\CSR102x_A05\libgatt_lib_ram.a(sw_patch_ram.o) (___libgatt_lib_db_5607)
D:\CSR102x_SDK-3.1.1\tools\lib\CSR102x_A05\libgatt_lib_ram.a(patch_sysop_sleep.o)
                              D:\CSR102x_SDK-3.1.1\tools\lib\CSR102x_A05\libgatt_lib_ram.a(sw_patch_ram.o) (___libgatt_lib_db_5609)
D:\CSR102x_SDK-3.1.1\tools\lib\CSR102x_A05\libgatt_lib_ram.a(patch_adc.o)
                              D:\CSR102x_SDK-3.1.1\tools\lib\CSR102x_A05\libgatt_lib_ram.a(patch_reset.o) (___libgatt_lib_db_5611)
D:\CSR102x_SDK-3.1.1\tools\lib\CSR102x_A05\libgatt_lib_ram.a(patch_smem.o)
                              D:\CSR102x_SDK-3.1.1\tools\lib\CSR102x_A05\libgatt_lib_ram.a(patch_reset.o) (___libgatt_lib_db_5618)
D:\CSR102x_SDK-3.1.1\tools\lib\CSR102x_A05\libgatt_lib_ram.a(patch_bleinit.o)
                              D:\CSR102x_SDK-3.1.1\tools\lib\CSR102x_A05\libgatt_lib_ram.a(sw_patch_ram.o) (___libgatt_lib_db_5620)
D:\CSR102x_SDK-3.1.1\tools\lib\CSR102x_A05\libgatt_lib_ram.a(patch_bletx.o)
                              D:\CSR102x_SDK-3.1.1\tools\lib\CSR102x_A05\libgatt_lib_ram.a(sw_patch_ram.o) (___libgatt_lib_db_5624)
D:\CSR102x_SDK-3.1.1\tools\lib\CSR102x_A05\libgatt_lib_ram.a(patch_blerx.o)
                              D:\CSR102x_SDK-3.1.1\tools\lib\CSR102x_A05\libgatt_lib_ram.a(sw_patch_ram.o) (___libgatt_lib_db_5635)
D:\CSR102x_SDK-3.1.1\tools\lib\CSR102x_A05\libgatt_lib_ram.a(patch_blelo.o)
                              D:\CSR102x_SDK-3.1.1\tools\lib\CSR102x_A05\libgatt_lib_ram.a(patch_bleinit.o) (___libgatt_lib_db_5637)
D:\CSR102x_SDK-3.1.1\tools\lib\CSR102x_A05\libgatt_lib_ram.a(patch_hal_bleradio.o)
                              D:\CSR102x_SDK-3.1.1\tools\lib\CSR102x_A05\libgatt_lib_ram.a(patch_bleinit.o) (___libgatt_lib_db_5647)
D:\CSR102x_SDK-3.1.1\tools\lib\CSR102x_A05\libgatt_lib_ram.a(patch_sched.o)
                              D:\CSR102x_SDK-3.1.1\tools\lib\CSR102x_A05\libgatt_lib_ram.a(sw_patch_ram.o) (___libgatt_lib_db_5653)
D:\CSR102x_SDK-3.1.1\tools\lib\CSR102x_A05\libgatt_lib_ram.a(patch_bg_int.o)
                              D:\CSR102x_SDK-3.1.1\tools\lib\CSR102x_A05\libgatt_lib_ram.a(patch_reset.o) (___libgatt_lib_db_5658)
D:\CSR102x_SDK-3.1.1\tools\lib\CSR102x_A05\libgatt_lib_ram.a(patch_crypt_utils.o)
                              D:\CSR102x_SDK-3.1.1\tools\lib\CSR102x_A05\libgatt_lib_ram.a(patch_rand.o) (___libgatt_lib_db_5661)
D:\CSR102x_SDK-3.1.1\tools\lib\CSR102x_A05\libgatt_lib_ram.a(patch_ls_hci_if.o)
                              D:\CSR102x_SDK-3.1.1\tools\lib\CSR102x_A05\libgatt_lib_ram.a(sw_patch_ram.o) (___libgatt_lib_db_5452)
D:\CSR102x_SDK-3.1.1\tools\lib\CSR102x_A05\libgatt_lib_ram.a(patch_gap.o)
                              D:\CSR102x_SDK-3.1.1\tools\lib\CSR102x_A05\libgatt_lib_ram.a(patch_ls_hci_if.o) (gap_connection_ltk_available)
D:\CSR102x_SDK-3.1.1\tools\lib\CSR102x_A05\libgatt_lib_ram.a(patch_ls_app_if.o)
                              D:\CSR102x_SDK-3.1.1\tools\lib\CSR102x_A05\libgatt_lib_ram.a(sw_patch_ram.o) (___libgatt_lib_db_5458)
D:\CSR102x_SDK-3.1.1\tools\lib\CSR102x_A05\libgatt_lib_ram.a(patch_att.o)
                              D:\CSR102x_SDK-3.1.1\tools\lib\CSR102x_A05\libgatt_lib_ram.a(sw_patch_ram.o) (___libgatt_lib_db_5461)
D:\CSR102x_SDK-3.1.1\tools\lib\CSR102x_A05\libgatt_lib_ram.a(patch_gatt_common.o)
                              D:\CSR102x_SDK-3.1.1\tools\lib\CSR102x_A05\libgatt_lib_ram.a(sw_patch_ram.o) (___libgatt_lib_db_5465)
D:\CSR102x_SDK-3.1.1\tools\lib\CSR102x_A05\libgatt_lib_ram.a(patch_gatt_server_indications.o)
                              D:\CSR102x_SDK-3.1.1\tools\lib\CSR102x_A05\libgatt_lib_ram.a(sw_patch_ram.o) (___libgatt_lib_db_5467)
D:\CSR102x_SDK-3.1.1\tools\lib\CSR102x_A05\libgatt_lib_ram.a(patch_sm_msg_handler.o)
                              D:\CSR102x_SDK-3.1.1\tools\lib\CSR102x_A05\libgatt_lib_ram.a(sw_patch_ram.o) (___libgatt_lib_db_5477)
D:\CSR102x_SDK-3.1.1\tools\lib\CSR102x_A05\libgatt_lib_ram.a(patch_i2c.o)
                              D:\CSR102x_SDK-3.1.1\tools\lib\CSR102x_A05\libgatt_lib_ram.a(patch_reset.o) (___libgatt_lib_db_5493)
D:\CSR102x_SDK-3.1.1\tools\lib\CSR102x_A05\libgatt_lib_ram.a(patch_lm.o)
                              D:\CSR102x_SDK-3.1.1\tools\lib\CSR102x_A05\libgatt_lib_ram.a(sw_patch_ram.o) (___libgatt_lib_db_5498)
D:\CSR102x_SDK-3.1.1\tools\lib\CSR102x_A05\libgatt_lib_ram.a(patch_streams.o)
                              D:\CSR102x_SDK-3.1.1\tools\lib\CSR102x_A05\libgatt_lib_ram.a(sw_patch_ram.o) (___libgatt_lib_db_5501)
D:\CSR102x_SDK-3.1.1\tools\lib\CSR102x_A05\libgatt_lib_ram.a(patch_george.o)
                              D:\CSR102x_SDK-3.1.1\tools\lib\CSR102x_A05\libgatt_lib_ram.a(sw_patch_ram.o) (___libgatt_lib_db_5505)
D:\CSR102x_SDK-3.1.1\tools\lib\CSR102x_A05\libgatt_lib_ram.a(patch_george_adv.o)
                              D:\CSR102x_SDK-3.1.1\tools\lib\CSR102x_A05\libgatt_lib_ram.a(sw_patch_ram.o) (___libgatt_lib_db_5514)
D:\CSR102x_SDK-3.1.1\tools\lib\CSR102x_A05\libgatt_lib_ram.a(patch_george_reset.o)
                              D:\CSR102x_SDK-3.1.1\tools\lib\CSR102x_A05\libgatt_lib_ram.a(sw_patch_ram.o) (___libgatt_lib_db_5520)
D:\CSR102x_SDK-3.1.1\tools\lib\CSR102x_A05\libgatt_lib_ram.a(patch_george_test.o)
                              D:\CSR102x_SDK-3.1.1\tools\lib\CSR102x_A05\libgatt_lib_ram.a(sw_patch_ram.o) (___libgatt_lib_db_5525)
D:\CSR102x_SDK-3.1.1\tools\lib\CSR102x_A05\libgatt_lib_ram.a(patch_george_updates.o)
                              D:\CSR102x_SDK-3.1.1\tools\lib\CSR102x_A05\libgatt_lib_ram.a(sw_patch_ram.o) (___libgatt_lib_db_5530)
D:\CSR102x_SDK-3.1.1\tools\lib\CSR102x_A05\libgatt_lib_ram.a(patch_george_scheduler.o)
                              D:\CSR102x_SDK-3.1.1\tools\lib\CSR102x_A05\libgatt_lib_ram.a(sw_patch_ram.o) (___libgatt_lib_db_5532)
D:\CSR102x_SDK-3.1.1\tools\lib\CSR102x_A05\libgatt_lib_ram.a(patch_george_ll.o)
                              D:\CSR102x_SDK-3.1.1\tools\lib\CSR102x_A05\libgatt_lib_ram.a(sw_patch_ram.o) (___libgatt_lib_db_5534)
D:\CSR102x_SDK-3.1.1\tools\lib\CSR102x_A05\libgatt_lib_ram.a(patch_george_interrupt.o)
                              D:\CSR102x_SDK-3.1.1\tools\lib\CSR102x_A05\libgatt_lib_ram.a(patch_george.o) (___libgatt_lib_db_5536)
D:\CSR102x_SDK-3.1.1\tools\lib\CSR102x_A05\libgatt_lib_ram.a(patch_main.o)
                              D:\CSR102x_SDK-3.1.1\tools\lib\CSR102x_A05\libgatt_lib_ram.a(sw_patch_ram.o) (___libgatt_lib_db_5543)
D:\CSR102x_SDK-3.1.1\tools\lib\CSR102x_A05\libgatt_lib_ram.a(app_proxy_init.o)
                              D:\CSR102x_SDK-3.1.1\tools\lib\CSR102x_A05\libgatt_lib_ram.a(app_proxy_crt.o) (___libgatt_lib_db_2093)
D:\CSR102x_SDK-3.1.1\tools\lib\CSR102x_A05\libgatt_lib_ram.a(hw_patch_install.o)
                              D:\CSR102x_SDK-3.1.1\tools\lib\CSR102x_A05\libgatt_lib_ram.a(app_proxy_init.o) (___libgatt_lib_db_1787)

Allocating common symbols
Common symbol       size              file

status_appstore2    0x1               depend_Release_CSR102x_A05\largeobjecttransfer_model_handler.o
g_mesh_data         0x10              ..\mesh_common\mesh\libraries\CSR102x_A05\libcsrmesh.a(csr_mesh.o)
last_cal_temperature
                    0x5               D:\CSR102x_SDK-3.1.1\tools\lib\CSR102x_A05\libgatt_lib_ram.a(patch_hal_bleradio.o)
g_cskey_flags       0x1               depend_Release_CSR102x_A05\core_mesh_handler.o
g_battery_model_data
                    0x9               ..\mesh_common\mesh\libraries\CSR102x_A05\libbattery_server.a(battery_model.o)
interest_data       0x8               depend_Release_CSR102x_A05\largeobjecttransfer_model_handler.o
g_time_model_data   0x9               ..\mesh_common\mesh\libraries\CSR102x_A05\libtime_server.a(time_model.o)
g_mesh_handler_data
                    0xa               depend_Release_CSR102x_A05\app_mesh_handler.o
cached_auth_code    0x4               depend_Release_CSR102x_A05\main_app.o
old_version         0x1               depend_Release_CSR102x_A05\app_otau_handler.o
g_app_nvm_offset    0x1               depend_Release_CSR102x_A05\core_mesh_handler.o
switch_model_groups
                    0x1               depend_Release_CSR102x_A05\attention_model_handler.o
g_app_nvm_fresh     0x1               depend_Release_CSR102x_A05\core_mesh_handler.o
le_params           0xf               depend_Release_CSR102x_A05\app_mesh_handler.o
bleradio_config_min_ico_freq_mhz
                    0x1               D:\CSR102x_SDK-3.1.1\tools\lib\CSR102x_A05\libgatt_lib_ram.a(patch_blelo.o)
g_attention_model_data
                    0x9               ..\mesh_common\mesh\libraries\CSR102x_A05\libattention_server.a(attention_model.o)
tx_queue_buffer     0x90              depend_Release_CSR102x_A05\app_mesh_handler.o
g_action_model_data
                    0x9               ..\mesh_common\mesh\libraries\CSR102x_A05\libaction_server.a(action_model.o)
status_userstore3   0x1               depend_Release_CSR102x_A05\largeobjecttransfer_model_handler.o
stream_kick_reqd    0x1               D:\CSR102x_SDK-3.1.1\tools\lib\CSR102x_A05\libgatt_lib_ram.a(patch_streams.o)
g_extension_model_data
                    0x9               ..\mesh_common\mesh\libraries\CSR102x_A05\libextension_server.a(extension_model.o)
patch_can_sleep     0x1               D:\CSR102x_SDK-3.1.1\tools\lib\CSR102x_A05\libgatt_lib_ram.a(patch_sysop_fht.o)
store_info_appstore1
                    0x4               depend_Release_CSR102x_A05\largeobjecttransfer_model_handler.o
lot_model_groups    0x1               depend_Release_CSR102x_A05\attention_model_handler.o
status_appstore1    0x1               depend_Release_CSR102x_A05\largeobjecttransfer_model_handler.o
g_extension_client_data
                    0x9               ..\mesh_common\mesh\libraries\CSR102x_A05\libextension_client.a(extension_client.o)
data_model_groups   0x1               depend_Release_CSR102x_A05\attention_model_handler.o
bleradio_config_xtal_board_offset
                    0x1               D:\CSR102x_SDK-3.1.1\tools\lib\CSR102x_A05\libgatt_lib_ram.a(patch_blelo.o)
g_time_client_data  0x9               ..\mesh_common\mesh\libraries\CSR102x_A05\libtime_client.a(time_client.o)
bleradio_config_tx_loop_psrcs
                    0x3               D:\CSR102x_SDK-3.1.1\tools\lib\CSR102x_A05\libgatt_lib_ram.a(patch_blelo.o)
g_le_bearer_data    0xa               ..\mesh_common\mesh\libraries\CSR102x_A05\libcsrmesh.a(csr_mesh_bearer.o)
g_largeobjecttransfer_model_data
                    0x9               ..\mesh_common\mesh\libraries\CSR102x_A05\liblargeobjecttransfer_server.a(largeobjecttransfer_model.o)
g_mesh_context_data
                    0x6f              ..\mesh_common\mesh\libraries\CSR102x_A05\libcsrmesh.a(csr_mesh.o)
ad_data             0x1f              depend_Release_CSR102x_A05\advertisement_handler.o
g_data_model_data   0x9               ..\mesh_common\mesh\libraries\CSR102x_A05\libdata_server.a(data_model.o)
bleradio_config_ibias_at_room
                    0x1               D:\CSR102x_SDK-3.1.1\tools\lib\CSR102x_A05\libgatt_lib_ram.a(patch_blelo.o)
g_light_client_data
                    0x9               ..\mesh_common\mesh\libraries\CSR102x_A05\liblight_client.a(light_client.o)
g_power_client_data
                    0x9               ..\mesh_common\mesh\libraries\CSR102x_A05\libpower_client.a(power_client.o)
mtl_operational_buffer
                    0x22              ..\mesh_common\mesh\libraries\CSR102x_A05\libcsrmesh.a(csr_mesh_mtl.o)
g_lot_service_id    0x10              depend_Release_CSR102x_A05\advertisement_handler.o
g_watchdog_model_data
                    0x9               ..\mesh_common\mesh\libraries\CSR102x_A05\libwatchdog_server.a(watchdog_model.o)
advert_timer_value  0x2               depend_Release_CSR102x_A05\advertisement_handler.o
store_info_userstore3
                    0x4               depend_Release_CSR102x_A05\largeobjecttransfer_model_handler.o
scan_rsp_data       0x1f              depend_Release_CSR102x_A05\advertisement_handler.o
gatt_advert_tid     0x1               depend_Release_CSR102x_A05\advertisement_handler.o
g_device_hash       0x8               ..\mesh_common\mesh\libraries\CSR102x_A05\libcsrmesh.a(csr_mesh_masp_mcp_common.o)
g_data_client_data  0x9               ..\mesh_common\mesh\libraries\CSR102x_A05\libdata_client.a(data_client.o)
store_info_appstore2
                    0x4               depend_Release_CSR102x_A05\largeobjecttransfer_model_handler.o
secureKeyInfo       0xb               depend_Release_CSR102x_A05\nvm_access.o
g_ping_model_data   0x9               ..\mesh_common\mesh\libraries\CSR102x_A05\libping_server.a(ping_model.o)
attention_model_groups
                    0x1               depend_Release_CSR102x_A05\attention_model_handler.o
g_gatt_bearer_data  0xb               ..\mesh_common\mesh\libraries\CSR102x_A05\libcsrmesh.a(csr_mesh_bearer.o)
g_lot_announce      0xa               depend_Release_CSR102x_A05\largeobjecttransfer_model_handler.o
cached_uuid         0x8               depend_Release_CSR102x_A05\main_app.o
g_mesh_svc_data     0x1e              depend_Release_CSR102x_A05\mesh_control_service.o
debounce_tid        0x1               depend_Release_CSR102x_A05\app_hw.o
bleradio_config_pshift_ibias
                    0x1               D:\CSR102x_SDK-3.1.1\tools\lib\CSR102x_A05\libgatt_lib_ram.a(patch_blelo.o)
gap_connection_ltk_available
                    0x4               D:\CSR102x_SDK-3.1.1\tools\lib\CSR102x_A05\libgatt_lib_ram.a(patch_gap.o)
g_switch_model_data
                    0x9               ..\mesh_common\mesh\libraries\CSR102x_A05\libswitch_server.a(switch_model.o)
wdog_model_groups   0x1               depend_Release_CSR102x_A05\attention_model_handler.o

Discarded input sections

 .text          0x00000000        0x0 depend_Release_CSR102x_A05\app_gatt_db.o
 .data          0x00000000        0x0 depend_Release_CSR102x_A05\app_gatt_db.o
 .bss           0x00000000        0x0 depend_Release_CSR102x_A05\app_gatt_db.o
 .text          0x00000000        0x0 depend_Release_CSR102x_A05\conn_param_update.o
 .data          0x00000000        0x0 depend_Release_CSR102x_A05\conn_param_update.o
 .bss           0x00000000        0x0 depend_Release_CSR102x_A05\conn_param_update.o
 .text          0x00000000        0x0 depend_Release_CSR102x_A05\nvm_access.o
 .data          0x00000000        0x0 depend_Release_CSR102x_A05\nvm_access.o
 .bss           0x00000000        0x0 depend_Release_CSR102x_A05\nvm_access.o
 .text.nvmDisable
                0x00000000        0x0 depend_Release_CSR102x_A05\nvm_access.o
 .text.Nvm_SetMemType
                0x00000000        0x0 depend_Release_CSR102x_A05\nvm_access.o
 .text          0x00000000        0x0 depend_Release_CSR102x_A05\cm_common.o
 .data          0x00000000        0x0 depend_Release_CSR102x_A05\cm_common.o
 .bss           0x00000000        0x0 depend_Release_CSR102x_A05\cm_common.o
 .text.CMUuidEqual
                0x00000000        0x0 depend_Release_CSR102x_A05\cm_common.o
 .text.CMGetConnectedDevices
                0x00000000        0x0 depend_Release_CSR102x_A05\cm_common.o
 .text.CMSetRandomAddress
                0x00000000        0x0 depend_Release_CSR102x_A05\cm_common.o
 .text.CMMatchConnectedAddress
                0x00000000        0x0 depend_Release_CSR102x_A05\cm_common.o
 .text.CMRemoveWhitelistDevice
                0x00000000        0x0 depend_Release_CSR102x_A05\cm_common.o
 .text.CMAddWhitelistDevice
                0x00000000        0x0 depend_Release_CSR102x_A05\cm_common.o
 .text.CMStreamGattSink
                0x00000000        0x0 depend_Release_CSR102x_A05\cm_common.o
 .text.CMHoldTxEvent
                0x00000000        0x0 depend_Release_CSR102x_A05\cm_common.o
 .text.CMGetDeviceIdFromBDAddress
                0x00000000        0x0 depend_Release_CSR102x_A05\cm_common.o
 .text.CMRemoveBond
                0x00000000        0x0 depend_Release_CSR102x_A05\cm_common.o
 .text          0x00000000        0x0 depend_Release_CSR102x_A05\cm_hal.o
 .data          0x00000000        0x0 depend_Release_CSR102x_A05\cm_hal.o
 .bss           0x00000000        0x0 depend_Release_CSR102x_A05\cm_hal.o
 .text.HALParseConnParamUpdate
                0x00000000        0x0 depend_Release_CSR102x_A05\cm_hal.o
 .text.HALSendPasskeyRsp
                0x00000000        0x0 depend_Release_CSR102x_A05\cm_hal.o
 .text.HALSendAuthRsp
                0x00000000        0x0 depend_Release_CSR102x_A05\cm_hal.o
 .text.HALSendValueIndication
                0x00000000        0x0 depend_Release_CSR102x_A05\cm_hal.o
 .text.HALSecuritySetConfiguration
                0x00000000        0x0 depend_Release_CSR102x_A05\cm_hal.o
 .text.HALStartEncryption
                0x00000000        0x0 depend_Release_CSR102x_A05\cm_hal.o
 .text.HALGapSetCentralMode
                0x00000000        0x0 depend_Release_CSR102x_A05\cm_hal.o
 .text          0x00000000        0x0 depend_Release_CSR102x_A05\cm_private.o
 .data          0x00000000        0x0 depend_Release_CSR102x_A05\cm_private.o
 .bss           0x00000000        0x0 depend_Release_CSR102x_A05\cm_private.o
 .text.CMGetDeviceEncryptState
                0x00000000        0x0 depend_Release_CSR102x_A05\cm_private.o
 .text          0x00000000        0x0 depend_Release_CSR102x_A05\cm_security.o
 .data          0x00000000        0x0 depend_Release_CSR102x_A05\cm_security.o
 .bss           0x00000000        0x0 depend_Release_CSR102x_A05\cm_security.o
 .text.CMIsBondIdValid
                0x00000000        0x0 depend_Release_CSR102x_A05\cm_security.o
 .text.CMGetBondedDevice
                0x00000000        0x0 depend_Release_CSR102x_A05\cm_security.o
 .text.CMGetMaxBondedDevices
                0x00000000        0x0 depend_Release_CSR102x_A05\cm_security.o
 .text.CMGetBondedDeviceFromBondId
                0x00000000        0x0 depend_Release_CSR102x_A05\cm_security.o
 .text.CMGetBondedDevices
                0x00000000        0x0 depend_Release_CSR102x_A05\cm_security.o
 .text.CMNotifyFactoryBond
                0x00000000        0x0 depend_Release_CSR102x_A05\cm_security.o
 .text.CMPassKeyInputResponse
                0x00000000        0x0 depend_Release_CSR102x_A05\cm_security.o
 .text.CMBondingAuthResponse
                0x00000000        0x0 depend_Release_CSR102x_A05\cm_security.o
 .text.CMStartEncryption
                0x00000000        0x0 depend_Release_CSR102x_A05\cm_security.o
 .text.CMStoreFactoryBond
                0x00000000        0x0 depend_Release_CSR102x_A05\cm_security.o
 .text.CMGetBondedDeviceRole
                0x00000000        0x0 depend_Release_CSR102x_A05\cm_security.o
 .text.CMSecuritySetConfiguration
                0x00000000        0x0 depend_Release_CSR102x_A05\cm_security.o
 .text          0x00000000        0x0 depend_Release_CSR102x_A05\cm_server.o
 .data          0x00000000        0x0 depend_Release_CSR102x_A05\cm_server.o
 .bss           0x00000000        0x0 depend_Release_CSR102x_A05\cm_server.o
 .text.CMSendValueIndication
                0x00000000        0x0 depend_Release_CSR102x_A05\cm_server.o
 .text          0x00000000        0x0 depend_Release_CSR102x_A05\cm_observer.o
 .data          0x00000000        0x0 depend_Release_CSR102x_A05\cm_observer.o
 .bss           0x00000000        0x0 depend_Release_CSR102x_A05\cm_observer.o
 .text.CMObserverGetScanState
                0x00000000        0x0 depend_Release_CSR102x_A05\cm_observer.o
 .text.CMObserverSetScanParams
                0x00000000        0x0 depend_Release_CSR102x_A05\cm_observer.o
 .text.CMObserverSetScanState
                0x00000000        0x0 depend_Release_CSR102x_A05\cm_observer.o
 .text.CMObserverStopScanning
                0x00000000        0x0 depend_Release_CSR102x_A05\cm_observer.o
 .text.CMObserverStartScanning
                0x00000000        0x0 depend_Release_CSR102x_A05\cm_observer.o
 .text.CMObserverStartScanningExt
                0x00000000        0x0 depend_Release_CSR102x_A05\cm_observer.o
 .text          0x00000000        0x0 depend_Release_CSR102x_A05\cm_peripheral.o
 .data          0x00000000        0x0 depend_Release_CSR102x_A05\cm_peripheral.o
 .bss           0x00000000        0x0 depend_Release_CSR102x_A05\cm_peripheral.o
 .text.CMPeripheralSetAdvertParams
                0x00000000        0x0 depend_Release_CSR102x_A05\cm_peripheral.o
 .text.CMPeripheralRemovePairing
                0x00000000        0x0 depend_Release_CSR102x_A05\cm_peripheral.o
 .text.CMPeripheralStopAdvertising
                0x00000000        0x0 depend_Release_CSR102x_A05\cm_peripheral.o
 .text.CMPeripheralStartAdvertising
                0x00000000        0x0 depend_Release_CSR102x_A05\cm_peripheral.o
 .text          0x00000000        0x0 depend_Release_CSR102x_A05\battery_hw.o
 .data          0x00000000        0x0 depend_Release_CSR102x_A05\battery_hw.o
 .bss           0x00000000        0x0 depend_Release_CSR102x_A05\battery_hw.o
 .text.CheckLowBatteryVoltage
                0x00000000        0x0 depend_Release_CSR102x_A05\battery_hw.o
 .text          0x00000000        0x0 depend_Release_CSR102x_A05\iot_hw.o
 .data          0x00000000        0x0 depend_Release_CSR102x_A05\iot_hw.o
 .bss           0x00000000        0x0 depend_Release_CSR102x_A05\iot_hw.o
 .text.IOTLightControlDeviceSetColor
                0x00000000        0x0 depend_Release_CSR102x_A05\iot_hw.o
 .text.IOTLightControlDeviceSetLevel
                0x00000000        0x0 depend_Release_CSR102x_A05\iot_hw.o
 .text          0x00000000        0x0 depend_Release_CSR102x_A05\csr_mesh_ps_ifce.o
 .data          0x00000000        0x0 depend_Release_CSR102x_A05\csr_mesh_ps_ifce.o
 .bss           0x00000000        0x0 depend_Release_CSR102x_A05\csr_mesh_ps_ifce.o
 .text.CSRmeshPsDeInit
                0x00000000        0x0 depend_Release_CSR102x_A05\csr_mesh_ps_ifce.o
 .text.CSRmeshPsReadWithOffset
                0x00000000        0x0 depend_Release_CSR102x_A05\csr_mesh_ps_ifce.o
 .text          0x00000000        0x0 depend_Release_CSR102x_A05\attention_model_handler.o
 .data          0x00000000        0x0 depend_Release_CSR102x_A05\attention_model_handler.o
 .bss           0x00000000        0x0 depend_Release_CSR102x_A05\attention_model_handler.o
 .text          0x00000000        0x0 depend_Release_CSR102x_A05\battery_model_handler.o
 .data          0x00000000        0x0 depend_Release_CSR102x_A05\battery_model_handler.o
 .bss           0x00000000        0x0 depend_Release_CSR102x_A05\battery_model_handler.o
 .text          0x00000000        0x0 depend_Release_CSR102x_A05\core_mesh_handler.o
 .data          0x00000000        0x0 depend_Release_CSR102x_A05\core_mesh_handler.o
 .bss           0x00000000        0x0 depend_Release_CSR102x_A05\core_mesh_handler.o
 .text          0x00000000        0x0 depend_Release_CSR102x_A05\data_model_handler.o
 .data          0x00000000        0x0 depend_Release_CSR102x_A05\data_model_handler.o
 .bss           0x00000000        0x0 depend_Release_CSR102x_A05\data_model_handler.o
 .text          0x00000000        0x0 depend_Release_CSR102x_A05\watchdog_model_handler.o
 .data          0x00000000        0x0 depend_Release_CSR102x_A05\watchdog_model_handler.o
 .bss           0x00000000        0x0 depend_Release_CSR102x_A05\watchdog_model_handler.o
 .text          0x00000000        0x0 depend_Release_CSR102x_A05\app_util.o
 .data          0x00000000        0x0 depend_Release_CSR102x_A05\app_util.o
 .bss           0x00000000        0x0 depend_Release_CSR102x_A05\app_util.o
 .text          0x00000000        0x0 depend_Release_CSR102x_A05\connection_handler.o
 .data          0x00000000        0x0 depend_Release_CSR102x_A05\connection_handler.o
 .bss           0x00000000        0x0 depend_Release_CSR102x_A05\connection_handler.o
 .text.GetDevicePairingStatus
                0x00000000        0x0 depend_Release_CSR102x_A05\connection_handler.o
 .text          0x00000000        0x0 depend_Release_CSR102x_A05\advertisement_handler.o
 .data          0x00000000        0x0 depend_Release_CSR102x_A05\advertisement_handler.o
 .bss           0x00000000        0x0 depend_Release_CSR102x_A05\advertisement_handler.o
 .text          0x00000000        0x0 depend_Release_CSR102x_A05\time_model_handler.o
 .data          0x00000000        0x0 depend_Release_CSR102x_A05\time_model_handler.o
 .bss           0x00000000        0x0 depend_Release_CSR102x_A05\time_model_handler.o
 .text.TimeModelSetUTC
                0x00000000        0x0 depend_Release_CSR102x_A05\time_model_handler.o
 .text          0x00000000        0x0 depend_Release_CSR102x_A05\action_model_handler.o
 .data          0x00000000        0x0 depend_Release_CSR102x_A05\action_model_handler.o
 .bss           0x00000000        0x0 depend_Release_CSR102x_A05\action_model_handler.o
 .text          0x00000000        0x0 depend_Release_CSR102x_A05\extension_model_handler.o
 .data          0x00000000        0x0 depend_Release_CSR102x_A05\extension_model_handler.o
 .bss           0x00000000        0x0 depend_Release_CSR102x_A05\extension_model_handler.o
 .text          0x00000000        0x0 depend_Release_CSR102x_A05\largeobjecttransfer_model_handler.o
 .data          0x00000000        0x0 depend_Release_CSR102x_A05\largeobjecttransfer_model_handler.o
 .bss           0x00000000        0x0 depend_Release_CSR102x_A05\largeobjecttransfer_model_handler.o
 .text          0x00000000        0x0 depend_Release_CSR102x_A05\app_otau_handler.o
 .data          0x00000000        0x0 depend_Release_CSR102x_A05\app_otau_handler.o
 .bss           0x00000000        0x0 depend_Release_CSR102x_A05\app_otau_handler.o
 .text          0x00000000        0x0 depend_Release_CSR102x_A05\gap_service.o
 .data          0x00000000        0x0 depend_Release_CSR102x_A05\gap_service.o
 .bss           0x00000000        0x0 depend_Release_CSR102x_A05\gap_service.o
 .text.GapInitServerService
                0x00000000        0x0 depend_Release_CSR102x_A05\gap_service.o
 .text          0x00000000        0x0 depend_Release_CSR102x_A05\gatt_service.o
 .data          0x00000000        0x0 depend_Release_CSR102x_A05\gatt_service.o
 .bss           0x00000000        0x0 depend_Release_CSR102x_A05\gatt_service.o
 .text.GattServiceChangedIndActive
                0x00000000        0x0 depend_Release_CSR102x_A05\gatt_service.o
 .text.GattInitServerService
                0x00000000        0x0 depend_Release_CSR102x_A05\gatt_service.o
 .text          0x00000000        0x0 depend_Release_CSR102x_A05\mesh_control_service.o
 .data          0x00000000        0x0 depend_Release_CSR102x_A05\mesh_control_service.o
 .bss           0x00000000        0x0 depend_Release_CSR102x_A05\mesh_control_service.o
 .text          0x00000000        0x0 depend_Release_CSR102x_A05\byte_utils.o
 .data          0x00000000        0x0 depend_Release_CSR102x_A05\byte_utils.o
 .bss           0x00000000        0x0 depend_Release_CSR102x_A05\byte_utils.o
 .text.GetNBytesFromStream
                0x00000000        0x0 depend_Release_CSR102x_A05\byte_utils.o
 .text.SetNBytesInStream
                0x00000000        0x0 depend_Release_CSR102x_A05\byte_utils.o
 .text          0x00000000        0x0 depend_Release_CSR102x_A05\gaia.o
 .data          0x00000000        0x0 depend_Release_CSR102x_A05\gaia.o
 .bss           0x00000000        0x0 depend_Release_CSR102x_A05\gaia.o
 .text.GaiaIsHostConnected
                0x00000000        0x0 depend_Release_CSR102x_A05\gaia.o
 .text          0x00000000        0x0 depend_Release_CSR102x_A05\gaia_otau.o
 .data          0x00000000        0x0 depend_Release_CSR102x_A05\gaia_otau.o
 .bss           0x00000000        0x0 depend_Release_CSR102x_A05\gaia_otau.o
 .text.GaiaOtauUpgradeProgress
                0x00000000        0x0 depend_Release_CSR102x_A05\gaia_otau.o
 .text          0x00000000        0x0 depend_Release_CSR102x_A05\gaia_service.o
 .data          0x00000000        0x0 depend_Release_CSR102x_A05\gaia_service.o
 .bss           0x00000000        0x0 depend_Release_CSR102x_A05\gaia_service.o
 .text          0x00000000        0x0 depend_Release_CSR102x_A05\main_app.o
 .data          0x00000000        0x0 depend_Release_CSR102x_A05\main_app.o
 .bss           0x00000000        0x0 depend_Release_CSR102x_A05\main_app.o
 .text          0x00000000        0x0 depend_Release_CSR102x_A05\app_mesh_handler.o
 .data          0x00000000        0x0 depend_Release_CSR102x_A05\app_mesh_handler.o
 .bss           0x00000000        0x0 depend_Release_CSR102x_A05\app_mesh_handler.o
 .text.WriteApplicationAndServiceDataToNVM
                0x00000000        0x0 depend_Release_CSR102x_A05\app_mesh_handler.o
 .text          0x00000000        0x0 depend_Release_CSR102x_A05\app_hw.o
 .data          0x00000000        0x0 depend_Release_CSR102x_A05\app_hw.o
 .bss           0x00000000        0x0 depend_Release_CSR102x_A05\app_hw.o
 .text          0x00000000        0x0 ..\mesh_common\mesh\libraries\CSR102x_A05\libcsrmesh.a(csr_mesh.o)
 .data          0x00000000        0x0 ..\mesh_common\mesh\libraries\CSR102x_A05\libcsrmesh.a(csr_mesh.o)
 .bss           0x00000000        0x0 ..\mesh_common\mesh\libraries\CSR102x_A05\libcsrmesh.a(csr_mesh.o)
 .text.___libcsrmesh_87
                0x00000000        0x0 ..\mesh_common\mesh\libraries\CSR102x_A05\libcsrmesh.a(csr_mesh.o)
 .text.___libcsrmesh_93
                0x00000000        0x0 ..\mesh_common\mesh\libraries\CSR102x_A05\libcsrmesh.a(csr_mesh.o)
 .text.CSRmeshSetMeshDuplicateMessageCacheSize
                0x00000000        0x0 ..\mesh_common\mesh\libraries\CSR102x_A05\libcsrmesh.a(csr_mesh.o)
 .text.___libcsrmesh_92
                0x00000000        0x0 ..\mesh_common\mesh\libraries\CSR102x_A05\libcsrmesh.a(csr_mesh.o)
 .text.___libcsrmesh_91
                0x00000000        0x0 ..\mesh_common\mesh\libraries\CSR102x_A05\libcsrmesh.a(csr_mesh.o)
 .text.___libcsrmesh_89
                0x00000000        0x0 ..\mesh_common\mesh\libraries\CSR102x_A05\libcsrmesh.a(csr_mesh.o)
 .text.CSRmeshSendKeyIVStatusRequest
                0x00000000        0x0 ..\mesh_common\mesh\libraries\CSR102x_A05\libcsrmesh.a(csr_mesh.o)
 .text.CSRmeshAssociateToANetwork
                0x00000000        0x0 ..\mesh_common\mesh\libraries\CSR102x_A05\libcsrmesh.a(csr_mesh.o)
 .text.___libcsrmesh_83
                0x00000000        0x0 ..\mesh_common\mesh\libraries\CSR102x_A05\libcsrmesh.a(csr_mesh.o)
 .text.CSRmeshSetSrcSequenceCache
                0x00000000        0x0 ..\mesh_common\mesh\libraries\CSR102x_A05\libcsrmesh.a(csr_mesh.o)
 .text.CSRmeshGetTransmitState
                0x00000000        0x0 ..\mesh_common\mesh\libraries\CSR102x_A05\libcsrmesh.a(csr_mesh.o)
 .text.CSRmeshGetDeviceUUID
                0x00000000        0x0 ..\mesh_common\mesh\libraries\CSR102x_A05\libcsrmesh.a(csr_mesh.o)
 .text.CSRmeshReset
                0x00000000        0x0 ..\mesh_common\mesh\libraries\CSR102x_A05\libcsrmesh.a(csr_mesh.o)
 .text          0x00000000        0x0 ..\mesh_common\mesh\libraries\CSR102x_A05\libcsrmesh.a(csr_mesh_masp_mcp_common.o)
 .data          0x00000000        0x0 ..\mesh_common\mesh\libraries\CSR102x_A05\libcsrmesh.a(csr_mesh_masp_mcp_common.o)
 .bss           0x00000000        0x0 ..\mesh_common\mesh\libraries\CSR102x_A05\libcsrmesh.a(csr_mesh_masp_mcp_common.o)
 .text          0x00000000        0x0 ..\mesh_common\mesh\libraries\CSR102x_A05\libcsrmesh.a(csr_mesh_mtl.o)
 .data          0x00000000        0x0 ..\mesh_common\mesh\libraries\CSR102x_A05\libcsrmesh.a(csr_mesh_mtl.o)
 .bss           0x00000000        0x0 ..\mesh_common\mesh\libraries\CSR102x_A05\libcsrmesh.a(csr_mesh_mtl.o)
 .text.___libcsrmesh_269
                0x00000000        0x0 ..\mesh_common\mesh\libraries\CSR102x_A05\libcsrmesh.a(csr_mesh_mtl.o)
 .text.___libcsrmesh_280
                0x00000000        0x0 ..\mesh_common\mesh\libraries\CSR102x_A05\libcsrmesh.a(csr_mesh_mtl.o)
 .text.___libcsrmesh_277
                0x00000000        0x0 ..\mesh_common\mesh\libraries\CSR102x_A05\libcsrmesh.a(csr_mesh_mtl.o)
 .text.___libcsrmesh_275
                0x00000000        0x0 ..\mesh_common\mesh\libraries\CSR102x_A05\libcsrmesh.a(csr_mesh_mtl.o)
 .text          0x00000000        0x0 ..\mesh_common\mesh\libraries\CSR102x_A05\libcsrmesh.a(csr_mesh_ec_alloc.o)
 .data          0x00000000        0x0 ..\mesh_common\mesh\libraries\CSR102x_A05\libcsrmesh.a(csr_mesh_ec_alloc.o)
 .bss           0x00000000        0x0 ..\mesh_common\mesh\libraries\CSR102x_A05\libcsrmesh.a(csr_mesh_ec_alloc.o)
 .text          0x00000000        0x0 ..\mesh_common\mesh\libraries\CSR102x_A05\libcsrmesh.a(csr_mesh_masp.o)
 .data          0x00000000        0x0 ..\mesh_common\mesh\libraries\CSR102x_A05\libcsrmesh.a(csr_mesh_masp.o)
 .bss           0x00000000        0x0 ..\mesh_common\mesh\libraries\CSR102x_A05\libcsrmesh.a(csr_mesh_masp.o)
 .text.___libcsrmesh_199
                0x00000000        0x0 ..\mesh_common\mesh\libraries\CSR102x_A05\libcsrmesh.a(csr_mesh_masp.o)
 .text.___libcsrmesh_454
                0x00000000        0x0 ..\mesh_common\mesh\libraries\CSR102x_A05\libcsrmesh.a(csr_mesh_masp.o)
 .text          0x00000000        0x0 ..\mesh_common\mesh\libraries\CSR102x_A05\libcsrmesh.a(csr_mesh_mcp.o)
 .data          0x00000000        0x0 ..\mesh_common\mesh\libraries\CSR102x_A05\libcsrmesh.a(csr_mesh_mcp.o)
 .bss           0x00000000        0x0 ..\mesh_common\mesh\libraries\CSR102x_A05\libcsrmesh.a(csr_mesh_mcp.o)
 .text.___libcsrmesh_243
                0x00000000        0x0 ..\mesh_common\mesh\libraries\CSR102x_A05\libcsrmesh.a(csr_mesh_mcp.o)
 .text.___libcsrmesh_244
                0x00000000        0x0 ..\mesh_common\mesh\libraries\CSR102x_A05\libcsrmesh.a(csr_mesh_mcp.o)
 .text.___libcsrmesh_240
                0x00000000        0x0 ..\mesh_common\mesh\libraries\CSR102x_A05\libcsrmesh.a(csr_mesh_mcp.o)
 .text.___libcsrmesh_242
                0x00000000        0x0 ..\mesh_common\mesh\libraries\CSR102x_A05\libcsrmesh.a(csr_mesh_mcp.o)
 .text.___libcsrmesh_460
                0x00000000        0x0 ..\mesh_common\mesh\libraries\CSR102x_A05\libcsrmesh.a(csr_mesh_mcp.o)
 .text          0x00000000        0x0 ..\mesh_common\mesh\libraries\CSR102x_A05\libcsrmesh.a(csr_mesh_sha256_get_results.o)
 .data          0x00000000        0x0 ..\mesh_common\mesh\libraries\CSR102x_A05\libcsrmesh.a(csr_mesh_sha256_get_results.o)
 .bss           0x00000000        0x0 ..\mesh_common\mesh\libraries\CSR102x_A05\libcsrmesh.a(csr_mesh_sha256_get_results.o)
 .text          0x00000000        0x0 ..\mesh_common\mesh\libraries\CSR102x_A05\libcsrmesh.a(csr_mesh_sha256_hmac.o)
 .data          0x00000000        0x0 ..\mesh_common\mesh\libraries\CSR102x_A05\libcsrmesh.a(csr_mesh_sha256_hmac.o)
 .bss           0x00000000        0x0 ..\mesh_common\mesh\libraries\CSR102x_A05\libcsrmesh.a(csr_mesh_sha256_hmac.o)
 .rodata.str2.2
                0x00000000        0x0 ..\mesh_common\mesh\libraries\CSR102x_A05\libcsrmesh.a(csr_mesh_sha256_hmac.o)
 .text.___libcsrmesh_306
                0x00000000        0x0 ..\mesh_common\mesh\libraries\CSR102x_A05\libcsrmesh.a(csr_mesh_sha256_hmac.o)
 .text          0x00000000        0x0 ..\mesh_common\mesh\libraries\CSR102x_A05\libcsrmesh.a(csr_mesh_sha256_initialise.o)
 .data          0x00000000        0x0 ..\mesh_common\mesh\libraries\CSR102x_A05\libcsrmesh.a(csr_mesh_sha256_initialise.o)
 .bss           0x00000000        0x0 ..\mesh_common\mesh\libraries\CSR102x_A05\libcsrmesh.a(csr_mesh_sha256_initialise.o)
 .text          0x00000000        0x0 ..\mesh_common\mesh\libraries\CSR102x_A05\libcsrmesh.a(csr_mesh_sha256_process_data.o)
 .data          0x00000000        0x0 ..\mesh_common\mesh\libraries\CSR102x_A05\libcsrmesh.a(csr_mesh_sha256_process_data.o)
 .bss           0x00000000        0x0 ..\mesh_common\mesh\libraries\CSR102x_A05\libcsrmesh.a(csr_mesh_sha256_process_data.o)
 .text.___libcsrmesh_319
                0x00000000        0x0 ..\mesh_common\mesh\libraries\CSR102x_A05\libcsrmesh.a(csr_mesh_sha256_process_data.o)
 .text          0x00000000        0x0 ..\mesh_common\mesh\libraries\CSR102x_A05\libcsrmesh.a(csr_mesh_bearer.o)
 .data          0x00000000        0x0 ..\mesh_common\mesh\libraries\CSR102x_A05\libcsrmesh.a(csr_mesh_bearer.o)
 .bss           0x00000000        0x0 ..\mesh_common\mesh\libraries\CSR102x_A05\libcsrmesh.a(csr_mesh_bearer.o)
 .text          0x00000000        0x0 ..\mesh_common\mesh\libraries\CSR102x_A05\libcsrmesh.a(csr_mesh_bearer_porting_util.o)
 .data          0x00000000        0x0 ..\mesh_common\mesh\libraries\CSR102x_A05\libcsrmesh.a(csr_mesh_bearer_porting_util.o)
 .bss           0x00000000        0x0 ..\mesh_common\mesh\libraries\CSR102x_A05\libcsrmesh.a(csr_mesh_bearer_porting_util.o)
 .text          0x00000000        0x0 ..\mesh_common\mesh\libraries\CSR102x_A05\libcsrmesh.a(csr1010_scheduler.o)
 .data          0x00000000        0x0 ..\mesh_common\mesh\libraries\CSR102x_A05\libcsrmesh.a(csr1010_scheduler.o)
 .bss           0x00000000        0x0 ..\mesh_common\mesh\libraries\CSR102x_A05\libcsrmesh.a(csr1010_scheduler.o)
 .text.CSRSchedRegisterPriorityMsgCb
                0x00000000        0x0 ..\mesh_common\mesh\libraries\CSR102x_A05\libcsrmesh.a(csr1010_scheduler.o)
 .text          0x00000000        0x0 ..\mesh_common\mesh\libraries\CSR102x_A05\libcsrmesh.a(csr_mesh_hal_ifce.o)
 .data          0x00000000        0x0 ..\mesh_common\mesh\libraries\CSR102x_A05\libcsrmesh.a(csr_mesh_hal_ifce.o)
 .bss           0x00000000        0x0 ..\mesh_common\mesh\libraries\CSR102x_A05\libcsrmesh.a(csr_mesh_hal_ifce.o)
 .text          0x00000000        0x0 ..\mesh_common\mesh\libraries\CSR102x_A05\libcsrmesh.a(csr_mesh_security_ifce_101x.o)
 .data          0x00000000        0x0 ..\mesh_common\mesh\libraries\CSR102x_A05\libcsrmesh.a(csr_mesh_security_ifce_101x.o)
 .bss           0x00000000        0x0 ..\mesh_common\mesh\libraries\CSR102x_A05\libcsrmesh.a(csr_mesh_security_ifce_101x.o)
 .text          0x00000000        0x0 ..\mesh_common\mesh\libraries\CSR102x_A05\libcsrmesh.a(csr_mesh_config_model.o)
 .data          0x00000000        0x0 ..\mesh_common\mesh\libraries\CSR102x_A05\libcsrmesh.a(csr_mesh_config_model.o)
 .bss           0x00000000        0x0 ..\mesh_common\mesh\libraries\CSR102x_A05\libcsrmesh.a(csr_mesh_config_model.o)
 .text          0x00000000        0x0 ..\mesh_common\mesh\libraries\CSR102x_A05\libcsrmesh.a(csr_mesh_bearer_model.o)
 .data          0x00000000        0x0 ..\mesh_common\mesh\libraries\CSR102x_A05\libcsrmesh.a(csr_mesh_bearer_model.o)
 .bss           0x00000000        0x0 ..\mesh_common\mesh\libraries\CSR102x_A05\libcsrmesh.a(csr_mesh_bearer_model.o)
 .text          0x00000000        0x0 ..\mesh_common\mesh\libraries\CSR102x_A05\libcsrmesh.a(csr_mesh_ec_math.o)
 .data          0x00000000        0x0 ..\mesh_common\mesh\libraries\CSR102x_A05\libcsrmesh.a(csr_mesh_ec_math.o)
 .bss           0x00000000        0x0 ..\mesh_common\mesh\libraries\CSR102x_A05\libcsrmesh.a(csr_mesh_ec_math.o)
 .text          0x00000000        0x0 ..\mesh_common\mesh\libraries\CSR102x_A05\libcsrmesh.a(csr_mesh_group_model.o)
 .data          0x00000000        0x0 ..\mesh_common\mesh\libraries\CSR102x_A05\libcsrmesh.a(csr_mesh_group_model.o)
 .bss           0x00000000        0x0 ..\mesh_common\mesh\libraries\CSR102x_A05\libcsrmesh.a(csr_mesh_group_model.o)
 .text          0x00000000        0x0 ..\mesh_common\mesh\libraries\CSR102x_A05\libcsrmesh.a(csr_mesh_large_num.o)
 .data          0x00000000        0x0 ..\mesh_common\mesh\libraries\CSR102x_A05\libcsrmesh.a(csr_mesh_large_num.o)
 .bss           0x00000000        0x0 ..\mesh_common\mesh\libraries\CSR102x_A05\libcsrmesh.a(csr_mesh_large_num.o)
 .text          0x00000000        0x0 ..\mesh_common\mesh\libraries\CSR102x_A05\libcsrmesh.a(csr_mesh_sha_add_to_cache.o)
 .data          0x00000000        0x0 ..\mesh_common\mesh\libraries\CSR102x_A05\libcsrmesh.a(csr_mesh_sha_add_to_cache.o)
 .bss           0x00000000        0x0 ..\mesh_common\mesh\libraries\CSR102x_A05\libcsrmesh.a(csr_mesh_sha_add_to_cache.o)
 .text          0x00000000        0x0 ..\mesh_common\mesh\libraries\CSR102x_A05\libcsrmesh.a(csr_mesh_sha256_calc_ith_hash_val.o)
 .data          0x00000000        0x0 ..\mesh_common\mesh\libraries\CSR102x_A05\libcsrmesh.a(csr_mesh_sha256_calc_ith_hash_val.o)
 .bss           0x00000000        0x0 ..\mesh_common\mesh\libraries\CSR102x_A05\libcsrmesh.a(csr_mesh_sha256_calc_ith_hash_val.o)
 .text          0x00000000        0x0 ..\mesh_common\mesh\libraries\CSR102x_A05\liblight_client.a(light_client.o)
 .data          0x00000000        0x0 ..\mesh_common\mesh\libraries\CSR102x_A05\liblight_client.a(light_client.o)
 .bss           0x00000000        0x0 ..\mesh_common\mesh\libraries\CSR102x_A05\liblight_client.a(light_client.o)
 .text.LightGetWhite
                0x00000000        0x0 ..\mesh_common\mesh\libraries\CSR102x_A05\liblight_client.a(light_client.o)
 .text.LightSetWhite
                0x00000000        0x0 ..\mesh_common\mesh\libraries\CSR102x_A05\liblight_client.a(light_client.o)
 .text.LightGetState
                0x00000000        0x0 ..\mesh_common\mesh\libraries\CSR102x_A05\liblight_client.a(light_client.o)
 .text.LightSetColorTemp
                0x00000000        0x0 ..\mesh_common\mesh\libraries\CSR102x_A05\liblight_client.a(light_client.o)
 .text.LightSetPowerLevel
                0x00000000        0x0 ..\mesh_common\mesh\libraries\CSR102x_A05\liblight_client.a(light_client.o)
 .text.LightSetRgb
                0x00000000        0x0 ..\mesh_common\mesh\libraries\CSR102x_A05\liblight_client.a(light_client.o)
 .text          0x00000000        0x0 ..\mesh_common\mesh\libraries\CSR102x_A05\libpower_client.a(power_client.o)
 .data          0x00000000        0x0 ..\mesh_common\mesh\libraries\CSR102x_A05\libpower_client.a(power_client.o)
 .bss           0x00000000        0x0 ..\mesh_common\mesh\libraries\CSR102x_A05\libpower_client.a(power_client.o)
 .text.PowerGetState
                0x00000000        0x0 ..\mesh_common\mesh\libraries\CSR102x_A05\libpower_client.a(power_client.o)
 .text.PowerToggleState
                0x00000000        0x0 ..\mesh_common\mesh\libraries\CSR102x_A05\libpower_client.a(power_client.o)
 .text          0x00000000        0x0 ..\mesh_common\mesh\libraries\CSR102x_A05\libswitch_server.a(switch_model.o)
 .data          0x00000000        0x0 ..\mesh_common\mesh\libraries\CSR102x_A05\libswitch_server.a(switch_model.o)
 .bss           0x00000000        0x0 ..\mesh_common\mesh\libraries\CSR102x_A05\libswitch_server.a(switch_model.o)
 .text          0x00000000        0x0 ..\mesh_common\mesh\libraries\CSR102x_A05\libextension_server.a(extension_model.o)
 .data          0x00000000        0x0 ..\mesh_common\mesh\libraries\CSR102x_A05\libextension_server.a(extension_model.o)
 .bss           0x00000000        0x0 ..\mesh_common\mesh\libraries\CSR102x_A05\libextension_server.a(extension_model.o)
 .text.ExtensionConflict
                0x00000000        0x0 ..\mesh_common\mesh\libraries\CSR102x_A05\libextension_server.a(extension_model.o)
 .text          0x00000000        0x0 ..\mesh_common\mesh\libraries\CSR102x_A05\libextension_server.a(extension_server_exception.o)
 .data          0x00000000        0x0 ..\mesh_common\mesh\libraries\CSR102x_A05\libextension_server.a(extension_server_exception.o)
 .bss           0x00000000        0x0 ..\mesh_common\mesh\libraries\CSR102x_A05\libextension_server.a(extension_server_exception.o)
 .text          0x00000000        0x0 ..\mesh_common\mesh\libraries\CSR102x_A05\libextension_client.a(extension_client.o)
 .data          0x00000000        0x0 ..\mesh_common\mesh\libraries\CSR102x_A05\libextension_client.a(extension_client.o)
 .bss           0x00000000        0x0 ..\mesh_common\mesh\libraries\CSR102x_A05\libextension_client.a(extension_client.o)
 .text.ExtensionRequest
                0x00000000        0x0 ..\mesh_common\mesh\libraries\CSR102x_A05\libextension_client.a(extension_client.o)
 .text          0x00000000        0x0 ..\mesh_common\mesh\libraries\CSR102x_A05\libextension_client.a(extension_client_exception.o)
 .data          0x00000000        0x0 ..\mesh_common\mesh\libraries\CSR102x_A05\libextension_client.a(extension_client_exception.o)
 .bss           0x00000000        0x0 ..\mesh_common\mesh\libraries\CSR102x_A05\libextension_client.a(extension_client_exception.o)
 .text          0x00000000        0x0 ..\mesh_common\mesh\libraries\CSR102x_A05\libtime_client.a(time_client.o)
 .data          0x00000000        0x0 ..\mesh_common\mesh\libraries\CSR102x_A05\libtime_client.a(time_client.o)
 .bss           0x00000000        0x0 ..\mesh_common\mesh\libraries\CSR102x_A05\libtime_client.a(time_client.o)
 .text.TimeGetState
                0x00000000        0x0 ..\mesh_common\mesh\libraries\CSR102x_A05\libtime_client.a(time_client.o)
 .text.TimeSetState
                0x00000000        0x0 ..\mesh_common\mesh\libraries\CSR102x_A05\libtime_client.a(time_client.o)
 .text          0x00000000        0x0 ..\mesh_common\mesh\libraries\CSR102x_A05\libtime_server.a(time_model.o)
 .data          0x00000000        0x0 ..\mesh_common\mesh\libraries\CSR102x_A05\libtime_server.a(time_model.o)
 .bss           0x00000000        0x0 ..\mesh_common\mesh\libraries\CSR102x_A05\libtime_server.a(time_model.o)
 .text.TimeState
                0x00000000        0x0 ..\mesh_common\mesh\libraries\CSR102x_A05\libtime_server.a(time_model.o)
 .text          0x00000000        0x0 ..\mesh_common\mesh\libraries\CSR102x_A05\libtime_server.a(time_server_exception.o)
 .data          0x00000000        0x0 ..\mesh_common\mesh\libraries\CSR102x_A05\libtime_server.a(time_server_exception.o)
 .bss           0x00000000        0x0 ..\mesh_common\mesh\libraries\CSR102x_A05\libtime_server.a(time_server_exception.o)
 .text          0x00000000        0x0 ..\mesh_common\mesh\libraries\CSR102x_A05\libaction_server.a(action_model.o)
 .data          0x00000000        0x0 ..\mesh_common\mesh\libraries\CSR102x_A05\libaction_server.a(action_model.o)
 .bss           0x00000000        0x0 ..\mesh_common\mesh\libraries\CSR102x_A05\libaction_server.a(action_model.o)
 .text.ActionDeleteAck
                0x00000000        0x0 ..\mesh_common\mesh\libraries\CSR102x_A05\libaction_server.a(action_model.o)
 .text.ActionActionStatus
                0x00000000        0x0 ..\mesh_common\mesh\libraries\CSR102x_A05\libaction_server.a(action_model.o)
 .text.ActionSetActionAck
                0x00000000        0x0 ..\mesh_common\mesh\libraries\CSR102x_A05\libaction_server.a(action_model.o)
 .text          0x00000000        0x0 ..\mesh_common\mesh\libraries\CSR102x_A05\libaction_server.a(action_server_exception.o)
 .data          0x00000000        0x0 ..\mesh_common\mesh\libraries\CSR102x_A05\libaction_server.a(action_server_exception.o)
 .bss           0x00000000        0x0 ..\mesh_common\mesh\libraries\CSR102x_A05\libaction_server.a(action_server_exception.o)
 .text.ActionPrepareAction
                0x00000000        0x0 ..\mesh_common\mesh\libraries\CSR102x_A05\libaction_server.a(action_server_exception.o)
 .text          0x00000000        0x0 ..\mesh_common\mesh\libraries\CSR102x_A05\libwatchdog_server.a(watchdog_model.o)
 .data          0x00000000        0x0 ..\mesh_common\mesh\libraries\CSR102x_A05\libwatchdog_server.a(watchdog_model.o)
 .bss           0x00000000        0x0 ..\mesh_common\mesh\libraries\CSR102x_A05\libwatchdog_server.a(watchdog_model.o)
 .text.WatchdogInterval
                0x00000000        0x0 ..\mesh_common\mesh\libraries\CSR102x_A05\libwatchdog_server.a(watchdog_model.o)
 .text          0x00000000        0x0 ..\mesh_common\mesh\libraries\CSR102x_A05\libping_server.a(ping_model.o)
 .data          0x00000000        0x0 ..\mesh_common\mesh\libraries\CSR102x_A05\libping_server.a(ping_model.o)
 .bss           0x00000000        0x0 ..\mesh_common\mesh\libraries\CSR102x_A05\libping_server.a(ping_model.o)
 .text.PingResponse
                0x00000000        0x0 ..\mesh_common\mesh\libraries\CSR102x_A05\libping_server.a(ping_model.o)
 .text          0x00000000        0x0 ..\mesh_common\mesh\libraries\CSR102x_A05\libping_server.a(ping_server_exception.o)
 .data          0x00000000        0x0 ..\mesh_common\mesh\libraries\CSR102x_A05\libping_server.a(ping_server_exception.o)
 .bss           0x00000000        0x0 ..\mesh_common\mesh\libraries\CSR102x_A05\libping_server.a(ping_server_exception.o)
 .text          0x00000000        0x0 ..\mesh_common\mesh\libraries\CSR102x_A05\libattention_server.a(attention_model.o)
 .data          0x00000000        0x0 ..\mesh_common\mesh\libraries\CSR102x_A05\libattention_server.a(attention_model.o)
 .bss           0x00000000        0x0 ..\mesh_common\mesh\libraries\CSR102x_A05\libattention_server.a(attention_model.o)
 .text.AttentionState
                0x00000000        0x0 ..\mesh_common\mesh\libraries\CSR102x_A05\libattention_server.a(attention_model.o)
 .text          0x00000000        0x0 ..\mesh_common\mesh\libraries\CSR102x_A05\libdata_server.a(data_model.o)
 .data          0x00000000        0x0 ..\mesh_common\mesh\libraries\CSR102x_A05\libdata_server.a(data_model.o)
 .bss           0x00000000        0x0 ..\mesh_common\mesh\libraries\CSR102x_A05\libdata_server.a(data_model.o)
 .text.DataStreamReceived
                0x00000000        0x0 ..\mesh_common\mesh\libraries\CSR102x_A05\libdata_server.a(data_model.o)
 .text          0x00000000        0x0 ..\mesh_common\mesh\libraries\CSR102x_A05\libdata_client.a(data_client.o)
 .data          0x00000000        0x0 ..\mesh_common\mesh\libraries\CSR102x_A05\libdata_client.a(data_client.o)
 .bss           0x00000000        0x0 ..\mesh_common\mesh\libraries\CSR102x_A05\libdata_client.a(data_client.o)
 .text.DataBlockSend
                0x00000000        0x0 ..\mesh_common\mesh\libraries\CSR102x_A05\libdata_client.a(data_client.o)
 .text          0x00000000        0x0 ..\mesh_common\mesh\libraries\CSR102x_A05\libbattery_server.a(battery_model.o)
 .data          0x00000000        0x0 ..\mesh_common\mesh\libraries\CSR102x_A05\libbattery_server.a(battery_model.o)
 .bss           0x00000000        0x0 ..\mesh_common\mesh\libraries\CSR102x_A05\libbattery_server.a(battery_model.o)
 .text          0x00000000        0x0 ..\mesh_common\mesh\libraries\CSR102x_A05\liblargeobjecttransfer_server.a(largeobjecttransfer_model.o)
 .data          0x00000000        0x0 ..\mesh_common\mesh\libraries\CSR102x_A05\liblargeobjecttransfer_server.a(largeobjecttransfer_model.o)
 .bss           0x00000000        0x0 ..\mesh_common\mesh\libraries\CSR102x_A05\liblargeobjecttransfer_server.a(largeobjecttransfer_model.o)
 .text.LargeObjectTransferInterest
                0x00000000        0x0 ..\mesh_common\mesh\libraries\CSR102x_A05\liblargeobjecttransfer_server.a(largeobjecttransfer_model.o)
 .text          0x00000000        0x0 ..\mesh_common\mesh\libraries\CSR102x_A05\liblargeobjecttransfer_server.a(largeobjecttransfer_server_exception.o)
 .data          0x00000000        0x0 ..\mesh_common\mesh\libraries\CSR102x_A05\liblargeobjecttransfer_server.a(largeobjecttransfer_server_exception.o)
 .bss           0x00000000        0x0 ..\mesh_common\mesh\libraries\CSR102x_A05\liblargeobjecttransfer_server.a(largeobjecttransfer_server_exception.o)
 .text          0x00000000        0x0 D:\CSR102x_SDK-3.1.1\tools\lib\CSR102x_A05\libgatt_lib_ram.a(patch_ls.o)
 .data          0x00000000        0x0 D:\CSR102x_SDK-3.1.1\tools\lib\CSR102x_A05\libgatt_lib_ram.a(patch_ls.o)
 .bss           0x00000000        0x0 D:\CSR102x_SDK-3.1.1\tools\lib\CSR102x_A05\libgatt_lib_ram.a(patch_ls.o)
 .text.LsReadRemoteUsedFeatures
                0x00000000        0x0 D:\CSR102x_SDK-3.1.1\tools\lib\CSR102x_A05\libgatt_lib_ram.a(patch_ls.o)
 .text          0x00000000        0x0 D:\CSR102x_SDK-3.1.1\tools\lib\CSR102x_A05\libgatt_lib_ram.a(patch_gatt_api.o)
 .data          0x00000000        0x0 D:\CSR102x_SDK-3.1.1\tools\lib\CSR102x_A05\libgatt_lib_ram.a(patch_gatt_api.o)
 .bss           0x00000000        0x0 D:\CSR102x_SDK-3.1.1\tools\lib\CSR102x_A05\libgatt_lib_ram.a(patch_gatt_api.o)
 .data          0x00000000        0x0 D:\CSR102x_SDK-3.1.1\tools\lib\CSR102x_A05\libgatt_lib_ram.a(sm_ram.o)
 .bss           0x00000000        0x0 D:\CSR102x_SDK-3.1.1\tools\lib\CSR102x_A05\libgatt_lib_ram.a(sm_ram.o)
 .data          0x00000000        0x0 D:\CSR102x_SDK-3.1.1\tools\lib\CSR102x_A05\libgatt_lib_ram.a(sm_key_req_api.o)
 .bss           0x00000000        0x0 D:\CSR102x_SDK-3.1.1\tools\lib\CSR102x_A05\libgatt_lib_ram.a(sm_key_req_api.o)
 .data          0x00000000        0x0 D:\CSR102x_SDK-3.1.1\tools\lib\CSR102x_A05\libgatt_lib_ram.a(sm_div_approval_api.o)
 .bss           0x00000000        0x0 D:\CSR102x_SDK-3.1.1\tools\lib\CSR102x_A05\libgatt_lib_ram.a(sm_div_approval_api.o)
 .data          0x00000000        0x0 D:\CSR102x_SDK-3.1.1\tools\lib\CSR102x_A05\libgatt_lib_ram.a(sm_pairing_auth_api.o)
 .bss           0x00000000        0x0 D:\CSR102x_SDK-3.1.1\tools\lib\CSR102x_A05\libgatt_lib_ram.a(sm_pairing_auth_api.o)
 .data          0x00000000        0x0 D:\CSR102x_SDK-3.1.1\tools\lib\CSR102x_A05\libgatt_lib_ram.a(sm_ltk_api.o)
 .bss           0x00000000        0x0 D:\CSR102x_SDK-3.1.1\tools\lib\CSR102x_A05\libgatt_lib_ram.a(sm_ltk_api.o)
 .data          0x00000000        0x0 D:\CSR102x_SDK-3.1.1\tools\lib\CSR102x_A05\libgatt_lib_ram.a(patch_sm_l2cap_if.o)
 .text          0x00000000        0x0 D:\CSR102x_SDK-3.1.1\tools\lib\CSR102x_A05\libgatt_lib_ram.a(patch_sm_api.o)
 .data          0x00000000        0x0 D:\CSR102x_SDK-3.1.1\tools\lib\CSR102x_A05\libgatt_lib_ram.a(patch_sm_api.o)
 .bss           0x00000000        0x0 D:\CSR102x_SDK-3.1.1\tools\lib\CSR102x_A05\libgatt_lib_ram.a(patch_sm_api.o)
 .text          0x00000000        0x0 D:\CSR102x_SDK-3.1.1\tools\lib\CSR102x_A05\libgatt_lib_ram.a(patch_george_rx.o)
 .data          0x00000000        0x0 D:\CSR102x_SDK-3.1.1\tools\lib\CSR102x_A05\libgatt_lib_ram.a(patch_george_rx.o)
 .bss           0x00000000        0x0 D:\CSR102x_SDK-3.1.1\tools\lib\CSR102x_A05\libgatt_lib_ram.a(patch_george_rx.o)
 .text          0x00000000        0x0 D:\CSR102x_SDK-3.1.1\tools\lib\CSR102x_A05\libgatt_lib_ram.a(patch_george_rssi.o)
 .data          0x00000000        0x0 D:\CSR102x_SDK-3.1.1\tools\lib\CSR102x_A05\libgatt_lib_ram.a(patch_george_rssi.o)
 .bss           0x00000000        0x0 D:\CSR102x_SDK-3.1.1\tools\lib\CSR102x_A05\libgatt_lib_ram.a(patch_george_rssi.o)
 .text          0x00000000        0x0 D:\CSR102x_SDK-3.1.1\tools\lib\CSR102x_A05\libgatt_lib_ram.a(patch_reset.o)
 .data          0x00000000        0x0 D:\CSR102x_SDK-3.1.1\tools\lib\CSR102x_A05\libgatt_lib_ram.a(patch_reset.o)
 .bss           0x00000000        0x0 D:\CSR102x_SDK-3.1.1\tools\lib\CSR102x_A05\libgatt_lib_ram.a(patch_reset.o)
 COMMON         0x00000000        0x0 D:\CSR102x_SDK-3.1.1\tools\lib\CSR102x_A05\libgatt_lib_ram.a(patch_reset.o)
 .text          0x00000000        0x0 D:\CSR102x_SDK-3.1.1\tools\lib\CSR102x_A05\libgatt_lib_ram.a(patch_flashheart_d06.o)
 .data          0x00000000        0x0 D:\CSR102x_SDK-3.1.1\tools\lib\CSR102x_A05\libgatt_lib_ram.a(patch_flashheart_d06.o)
 .bss           0x00000000        0x0 D:\CSR102x_SDK-3.1.1\tools\lib\CSR102x_A05\libgatt_lib_ram.a(patch_flashheart_d06.o)
 .text          0x00000000        0x0 D:\CSR102x_SDK-3.1.1\tools\lib\CSR102x_A05\libgatt_lib_ram.a(id_ram.o)
 .data          0x00000000        0x0 D:\CSR102x_SDK-3.1.1\tools\lib\CSR102x_A05\libgatt_lib_ram.a(id_ram.o)
 .bss           0x00000000        0x0 D:\CSR102x_SDK-3.1.1\tools\lib\CSR102x_A05\libgatt_lib_ram.a(id_ram.o)
 .text          0x00000000        0x0 D:\CSR102x_SDK-3.1.1\tools\lib\CSR102x_A05\libgatt_lib_ram.a(sw_patch_ram.o)
 .data          0x00000000        0x0 D:\CSR102x_SDK-3.1.1\tools\lib\CSR102x_A05\libgatt_lib_ram.a(sw_patch_ram.o)
 .bss           0x00000000        0x0 D:\CSR102x_SDK-3.1.1\tools\lib\CSR102x_A05\libgatt_lib_ram.a(sw_patch_ram.o)
 .text          0x00000000        0x0 D:\CSR102x_SDK-3.1.1\tools\lib\CSR102x_A05\libgatt_lib_ram.a(patch_storage_api.o)
 .data          0x00000000        0x0 D:\CSR102x_SDK-3.1.1\tools\lib\CSR102x_A05\libgatt_lib_ram.a(patch_storage_api.o)
 .bss           0x00000000        0x0 D:\CSR102x_SDK-3.1.1\tools\lib\CSR102x_A05\libgatt_lib_ram.a(patch_storage_api.o)
 .text.Storage_BlockRead
                0x00000000        0x0 D:\CSR102x_SDK-3.1.1\tools\lib\CSR102x_A05\libgatt_lib_ram.a(patch_storage_api.o)
 .text          0x00000000        0x0 D:\CSR102x_SDK-3.1.1\tools\lib\CSR102x_A05\libgatt_lib_ram.a(configstore_api.o)
 .data          0x00000000        0x0 D:\CSR102x_SDK-3.1.1\tools\lib\CSR102x_A05\libgatt_lib_ram.a(configstore_api.o)
 .bss           0x00000000        0x0 D:\CSR102x_SDK-3.1.1\tools\lib\CSR102x_A05\libgatt_lib_ram.a(configstore_api.o)
 .text          0x00000000        0x0 D:\CSR102x_SDK-3.1.1\tools\lib\CSR102x_A05\libgatt_lib_ram.a(patch_configstore.o)
 .data          0x00000000        0x0 D:\CSR102x_SDK-3.1.1\tools\lib\CSR102x_A05\libgatt_lib_ram.a(patch_configstore.o)
 .bss           0x00000000        0x0 D:\CSR102x_SDK-3.1.1\tools\lib\CSR102x_A05\libgatt_lib_ram.a(patch_configstore.o)
 .text          0x00000000        0x0 D:\CSR102x_SDK-3.1.1\tools\lib\CSR102x_A05\libgatt_lib_ram.a(userstore_api.o)
 .data          0x00000000        0x0 D:\CSR102x_SDK-3.1.1\tools\lib\CSR102x_A05\libgatt_lib_ram.a(userstore_api.o)
 .bss           0x00000000        0x0 D:\CSR102x_SDK-3.1.1\tools\lib\CSR102x_A05\libgatt_lib_ram.a(userstore_api.o)
 .text.Userstore_Erase
                0x00000000        0x0 D:\CSR102x_SDK-3.1.1\tools\lib\CSR102x_A05\libgatt_lib_ram.a(userstore_api.o)
 .text          0x00000000        0x0 D:\CSR102x_SDK-3.1.1\tools\lib\CSR102x_A05\libgatt_lib_ram.a(patch_sysop_fht.o)
 .data          0x00000000        0x0 D:\CSR102x_SDK-3.1.1\tools\lib\CSR102x_A05\libgatt_lib_ram.a(patch_sysop_fht.o)
 .bss           0x00000000        0x0 D:\CSR102x_SDK-3.1.1\tools\lib\CSR102x_A05\libgatt_lib_ram.a(patch_sysop_fht.o)
 .data          0x00000000        0x0 D:\CSR102x_SDK-3.1.1\tools\lib\CSR102x_A05\libgatt_lib_ram.a(app_proxy_crt.o)
 .bss           0x00000000        0x0 D:\CSR102x_SDK-3.1.1\tools\lib\CSR102x_A05\libgatt_lib_ram.a(app_proxy_crt.o)
 .text          0x00000000        0x0 D:\CSR102x_SDK-3.1.1\tools\lib\CSR102x_A05\libgatt_lib_ram.a(patch_uci_carlos_map.o)
 .data          0x00000000        0x0 D:\CSR102x_SDK-3.1.1\tools\lib\CSR102x_A05\libgatt_lib_ram.a(patch_uci_carlos_map.o)
 .bss           0x00000000        0x0 D:\CSR102x_SDK-3.1.1\tools\lib\CSR102x_A05\libgatt_lib_ram.a(patch_uci_carlos_map.o)
 .text          0x00000000        0x0 D:\CSR102x_SDK-3.1.1\tools\lib\CSR102x_A05\libgatt_lib_ram.a(patch_uci_uart_h4.o)
 .data          0x00000000        0x0 D:\CSR102x_SDK-3.1.1\tools\lib\CSR102x_A05\libgatt_lib_ram.a(patch_uci_uart_h4.o)
 .bss           0x00000000        0x0 D:\CSR102x_SDK-3.1.1\tools\lib\CSR102x_A05\libgatt_lib_ram.a(patch_uci_uart_h4.o)
 .text          0x00000000        0x0 D:\CSR102x_SDK-3.1.1\tools\lib\CSR102x_A05\libgatt_lib_ram.a(patch_store_update_api.o)
 .data          0x00000000        0x0 D:\CSR102x_SDK-3.1.1\tools\lib\CSR102x_A05\libgatt_lib_ram.a(patch_store_update_api.o)
 .bss           0x00000000        0x0 D:\CSR102x_SDK-3.1.1\tools\lib\CSR102x_A05\libgatt_lib_ram.a(patch_store_update_api.o)
 .text.read_cs_key
                0x00000000        0x0 D:\CSR102x_SDK-3.1.1\tools\lib\CSR102x_A05\libgatt_lib_ram.a(patch_store_update_api.o)
 .text.validate_hash
                0x00000000        0x0 D:\CSR102x_SDK-3.1.1\tools\lib\CSR102x_A05\libgatt_lib_ram.a(patch_store_update_api.o)
 .text.validate_signature
                0x00000000        0x0 D:\CSR102x_SDK-3.1.1\tools\lib\CSR102x_A05\libgatt_lib_ram.a(patch_store_update_api.o)
 .text.StoreUpdate_AppValid
                0x00000000        0x0 D:\CSR102x_SDK-3.1.1\tools\lib\CSR102x_A05\libgatt_lib_ram.a(patch_store_update_api.o)
 .text          0x00000000        0x0 D:\CSR102x_SDK-3.1.1\tools\lib\CSR102x_A05\libgatt_lib_ram.a(patch_rand.o)
 .data          0x00000000        0x0 D:\CSR102x_SDK-3.1.1\tools\lib\CSR102x_A05\libgatt_lib_ram.a(patch_rand.o)
 .bss           0x00000000        0x0 D:\CSR102x_SDK-3.1.1\tools\lib\CSR102x_A05\libgatt_lib_ram.a(patch_rand.o)
 .text          0x00000000        0x0 D:\CSR102x_SDK-3.1.1\tools\lib\CSR102x_A05\libgatt_lib_ram.a(patch_edge_capture.o)
 .data          0x00000000        0x0 D:\CSR102x_SDK-3.1.1\tools\lib\CSR102x_A05\libgatt_lib_ram.a(patch_edge_capture.o)
 .bss           0x00000000        0x0 D:\CSR102x_SDK-3.1.1\tools\lib\CSR102x_A05\libgatt_lib_ram.a(patch_edge_capture.o)
 .text          0x00000000        0x0 D:\CSR102x_SDK-3.1.1\tools\lib\CSR102x_A05\libgatt_lib_ram.a(patch_uart.o)
 .data          0x00000000        0x0 D:\CSR102x_SDK-3.1.1\tools\lib\CSR102x_A05\libgatt_lib_ram.a(patch_uart.o)
 .bss           0x00000000        0x0 D:\CSR102x_SDK-3.1.1\tools\lib\CSR102x_A05\libgatt_lib_ram.a(patch_uart.o)
 .text.UartConfigFlowControl
                0x00000000        0x0 D:\CSR102x_SDK-3.1.1\tools\lib\CSR102x_A05\libgatt_lib_ram.a(patch_uart.o)
 .text          0x00000000        0x0 D:\CSR102x_SDK-3.1.1\tools\lib\CSR102x_A05\libgatt_lib_ram.a(patch_keyscan.o)
 .data          0x00000000        0x0 D:\CSR102x_SDK-3.1.1\tools\lib\CSR102x_A05\libgatt_lib_ram.a(patch_keyscan.o)
 .bss           0x00000000        0x0 D:\CSR102x_SDK-3.1.1\tools\lib\CSR102x_A05\libgatt_lib_ram.a(patch_keyscan.o)
 .text          0x00000000        0x0 D:\CSR102x_SDK-3.1.1\tools\lib\CSR102x_A05\libgatt_lib_ram.a(patch_ir.o)
 .data          0x00000000        0x0 D:\CSR102x_SDK-3.1.1\tools\lib\CSR102x_A05\libgatt_lib_ram.a(patch_ir.o)
 .bss           0x00000000        0x0 D:\CSR102x_SDK-3.1.1\tools\lib\CSR102x_A05\libgatt_lib_ram.a(patch_ir.o)
 .text.IRBuildBlock
                0x00000000        0x0 D:\CSR102x_SDK-3.1.1\tools\lib\CSR102x_A05\libgatt_lib_ram.a(patch_ir.o)
 .text          0x00000000        0x0 D:\CSR102x_SDK-3.1.1\tools\lib\CSR102x_A05\libgatt_lib_ram.a(patch_sysop_clock_fht.o)
 .data          0x00000000        0x0 D:\CSR102x_SDK-3.1.1\tools\lib\CSR102x_A05\libgatt_lib_ram.a(patch_sysop_clock_fht.o)
 .bss           0x00000000        0x0 D:\CSR102x_SDK-3.1.1\tools\lib\CSR102x_A05\libgatt_lib_ram.a(patch_sysop_clock_fht.o)
 .text          0x00000000        0x0 D:\CSR102x_SDK-3.1.1\tools\lib\CSR102x_A05\libgatt_lib_ram.a(patch_sysop_sleep.o)
 .data          0x00000000        0x0 D:\CSR102x_SDK-3.1.1\tools\lib\CSR102x_A05\libgatt_lib_ram.a(patch_sysop_sleep.o)
 .bss           0x00000000        0x0 D:\CSR102x_SDK-3.1.1\tools\lib\CSR102x_A05\libgatt_lib_ram.a(patch_sysop_sleep.o)
 .text          0x00000000        0x0 D:\CSR102x_SDK-3.1.1\tools\lib\CSR102x_A05\libgatt_lib_ram.a(patch_adc.o)
 .data          0x00000000        0x0 D:\CSR102x_SDK-3.1.1\tools\lib\CSR102x_A05\libgatt_lib_ram.a(patch_adc.o)
 .bss           0x00000000        0x0 D:\CSR102x_SDK-3.1.1\tools\lib\CSR102x_A05\libgatt_lib_ram.a(patch_adc.o)
 .text          0x00000000        0x0 D:\CSR102x_SDK-3.1.1\tools\lib\CSR102x_A05\libgatt_lib_ram.a(patch_smem.o)
 .data          0x00000000        0x0 D:\CSR102x_SDK-3.1.1\tools\lib\CSR102x_A05\libgatt_lib_ram.a(patch_smem.o)
 .bss           0x00000000        0x0 D:\CSR102x_SDK-3.1.1\tools\lib\CSR102x_A05\libgatt_lib_ram.a(patch_smem.o)
 .text          0x00000000        0x0 D:\CSR102x_SDK-3.1.1\tools\lib\CSR102x_A05\libgatt_lib_ram.a(patch_bleinit.o)
 .data          0x00000000        0x0 D:\CSR102x_SDK-3.1.1\tools\lib\CSR102x_A05\libgatt_lib_ram.a(patch_bleinit.o)
 .bss           0x00000000        0x0 D:\CSR102x_SDK-3.1.1\tools\lib\CSR102x_A05\libgatt_lib_ram.a(patch_bleinit.o)
 .text          0x00000000        0x0 D:\CSR102x_SDK-3.1.1\tools\lib\CSR102x_A05\libgatt_lib_ram.a(patch_bletx.o)
 .data          0x00000000        0x0 D:\CSR102x_SDK-3.1.1\tools\lib\CSR102x_A05\libgatt_lib_ram.a(patch_bletx.o)
 .bss           0x00000000        0x0 D:\CSR102x_SDK-3.1.1\tools\lib\CSR102x_A05\libgatt_lib_ram.a(patch_bletx.o)
 .text          0x00000000        0x0 D:\CSR102x_SDK-3.1.1\tools\lib\CSR102x_A05\libgatt_lib_ram.a(patch_blerx.o)
 .data          0x00000000        0x0 D:\CSR102x_SDK-3.1.1\tools\lib\CSR102x_A05\libgatt_lib_ram.a(patch_blerx.o)
 .bss           0x00000000        0x0 D:\CSR102x_SDK-3.1.1\tools\lib\CSR102x_A05\libgatt_lib_ram.a(patch_blerx.o)
 .text          0x00000000        0x0 D:\CSR102x_SDK-3.1.1\tools\lib\CSR102x_A05\libgatt_lib_ram.a(patch_blelo.o)
 .data          0x00000000        0x0 D:\CSR102x_SDK-3.1.1\tools\lib\CSR102x_A05\libgatt_lib_ram.a(patch_blelo.o)
 .bss           0x00000000        0x0 D:\CSR102x_SDK-3.1.1\tools\lib\CSR102x_A05\libgatt_lib_ram.a(patch_blelo.o)
 .text          0x00000000        0x0 D:\CSR102x_SDK-3.1.1\tools\lib\CSR102x_A05\libgatt_lib_ram.a(patch_hal_bleradio.o)
 .data          0x00000000        0x0 D:\CSR102x_SDK-3.1.1\tools\lib\CSR102x_A05\libgatt_lib_ram.a(patch_hal_bleradio.o)
 .bss           0x00000000        0x0 D:\CSR102x_SDK-3.1.1\tools\lib\CSR102x_A05\libgatt_lib_ram.a(patch_hal_bleradio.o)
 .text          0x00000000        0x0 D:\CSR102x_SDK-3.1.1\tools\lib\CSR102x_A05\libgatt_lib_ram.a(patch_sched.o)
 .data          0x00000000        0x0 D:\CSR102x_SDK-3.1.1\tools\lib\CSR102x_A05\libgatt_lib_ram.a(patch_sched.o)
 .bss           0x00000000        0x0 D:\CSR102x_SDK-3.1.1\tools\lib\CSR102x_A05\libgatt_lib_ram.a(patch_sched.o)
 .text          0x00000000        0x0 D:\CSR102x_SDK-3.1.1\tools\lib\CSR102x_A05\libgatt_lib_ram.a(patch_bg_int.o)
 .data          0x00000000        0x0 D:\CSR102x_SDK-3.1.1\tools\lib\CSR102x_A05\libgatt_lib_ram.a(patch_bg_int.o)
 .bss           0x00000000        0x0 D:\CSR102x_SDK-3.1.1\tools\lib\CSR102x_A05\libgatt_lib_ram.a(patch_bg_int.o)
 .text          0x00000000        0x0 D:\CSR102x_SDK-3.1.1\tools\lib\CSR102x_A05\libgatt_lib_ram.a(patch_crypt_utils.o)
 .data          0x00000000        0x0 D:\CSR102x_SDK-3.1.1\tools\lib\CSR102x_A05\libgatt_lib_ram.a(patch_crypt_utils.o)
 .bss           0x00000000        0x0 D:\CSR102x_SDK-3.1.1\tools\lib\CSR102x_A05\libgatt_lib_ram.a(patch_crypt_utils.o)
 .text          0x00000000        0x0 D:\CSR102x_SDK-3.1.1\tools\lib\CSR102x_A05\libgatt_lib_ram.a(patch_ls_hci_if.o)
 .data          0x00000000        0x0 D:\CSR102x_SDK-3.1.1\tools\lib\CSR102x_A05\libgatt_lib_ram.a(patch_ls_hci_if.o)
 .bss           0x00000000        0x0 D:\CSR102x_SDK-3.1.1\tools\lib\CSR102x_A05\libgatt_lib_ram.a(patch_ls_hci_if.o)
 .text          0x00000000        0x0 D:\CSR102x_SDK-3.1.1\tools\lib\CSR102x_A05\libgatt_lib_ram.a(patch_gap.o)
 .data          0x00000000        0x0 D:\CSR102x_SDK-3.1.1\tools\lib\CSR102x_A05\libgatt_lib_ram.a(patch_gap.o)
 .bss           0x00000000        0x0 D:\CSR102x_SDK-3.1.1\tools\lib\CSR102x_A05\libgatt_lib_ram.a(patch_gap.o)
 .text.GapLtkAvailable
                0x00000000        0x0 D:\CSR102x_SDK-3.1.1\tools\lib\CSR102x_A05\libgatt_lib_ram.a(patch_gap.o)
 .text          0x00000000        0x0 D:\CSR102x_SDK-3.1.1\tools\lib\CSR102x_A05\libgatt_lib_ram.a(patch_ls_app_if.o)
 .data          0x00000000        0x0 D:\CSR102x_SDK-3.1.1\tools\lib\CSR102x_A05\libgatt_lib_ram.a(patch_ls_app_if.o)
 .bss           0x00000000        0x0 D:\CSR102x_SDK-3.1.1\tools\lib\CSR102x_A05\libgatt_lib_ram.a(patch_ls_app_if.o)
 .text          0x00000000        0x0 D:\CSR102x_SDK-3.1.1\tools\lib\CSR102x_A05\libgatt_lib_ram.a(patch_att.o)
 .data          0x00000000        0x0 D:\CSR102x_SDK-3.1.1\tools\lib\CSR102x_A05\libgatt_lib_ram.a(patch_att.o)
 .bss           0x00000000        0x0 D:\CSR102x_SDK-3.1.1\tools\lib\CSR102x_A05\libgatt_lib_ram.a(patch_att.o)
 .text          0x00000000        0x0 D:\CSR102x_SDK-3.1.1\tools\lib\CSR102x_A05\libgatt_lib_ram.a(patch_gatt_common.o)
 .data          0x00000000        0x0 D:\CSR102x_SDK-3.1.1\tools\lib\CSR102x_A05\libgatt_lib_ram.a(patch_gatt_common.o)
 .bss           0x00000000        0x0 D:\CSR102x_SDK-3.1.1\tools\lib\CSR102x_A05\libgatt_lib_ram.a(patch_gatt_common.o)
 .text          0x00000000        0x0 D:\CSR102x_SDK-3.1.1\tools\lib\CSR102x_A05\libgatt_lib_ram.a(patch_gatt_server_indications.o)
 .data          0x00000000        0x0 D:\CSR102x_SDK-3.1.1\tools\lib\CSR102x_A05\libgatt_lib_ram.a(patch_gatt_server_indications.o)
 .bss           0x00000000        0x0 D:\CSR102x_SDK-3.1.1\tools\lib\CSR102x_A05\libgatt_lib_ram.a(patch_gatt_server_indications.o)
 .data          0x00000000        0x0 D:\CSR102x_SDK-3.1.1\tools\lib\CSR102x_A05\libgatt_lib_ram.a(patch_sm_msg_handler.o)
 .bss           0x00000000        0x0 D:\CSR102x_SDK-3.1.1\tools\lib\CSR102x_A05\libgatt_lib_ram.a(patch_sm_msg_handler.o)
 .text          0x00000000        0x0 D:\CSR102x_SDK-3.1.1\tools\lib\CSR102x_A05\libgatt_lib_ram.a(patch_i2c.o)
 .data          0x00000000        0x0 D:\CSR102x_SDK-3.1.1\tools\lib\CSR102x_A05\libgatt_lib_ram.a(patch_i2c.o)
 .bss           0x00000000        0x0 D:\CSR102x_SDK-3.1.1\tools\lib\CSR102x_A05\libgatt_lib_ram.a(patch_i2c.o)
 .text.___libgatt_lib_db_5491
                0x00000000        0x0 D:\CSR102x_SDK-3.1.1\tools\lib\CSR102x_A05\libgatt_lib_ram.a(patch_i2c.o)
 .text.patch_i2c_slave_callback
                0x00000000        0x0 D:\CSR102x_SDK-3.1.1\tools\lib\CSR102x_A05\libgatt_lib_ram.a(patch_i2c.o)
 .rodata.patch_i2c_slave_callback
                0x00000000        0x0 D:\CSR102x_SDK-3.1.1\tools\lib\CSR102x_A05\libgatt_lib_ram.a(patch_i2c.o)
 .text.I2cTransfer
                0x00000000        0x0 D:\CSR102x_SDK-3.1.1\tools\lib\CSR102x_A05\libgatt_lib_ram.a(patch_i2c.o)
 .text.I2cWrite
                0x00000000        0x0 D:\CSR102x_SDK-3.1.1\tools\lib\CSR102x_A05\libgatt_lib_ram.a(patch_i2c.o)
 .text.I2cRead  0x00000000        0x0 D:\CSR102x_SDK-3.1.1\tools\lib\CSR102x_A05\libgatt_lib_ram.a(patch_i2c.o)
 .text          0x00000000        0x0 D:\CSR102x_SDK-3.1.1\tools\lib\CSR102x_A05\libgatt_lib_ram.a(patch_lm.o)
 .data          0x00000000        0x0 D:\CSR102x_SDK-3.1.1\tools\lib\CSR102x_A05\libgatt_lib_ram.a(patch_lm.o)
 .bss           0x00000000        0x0 D:\CSR102x_SDK-3.1.1\tools\lib\CSR102x_A05\libgatt_lib_ram.a(patch_lm.o)
 .text          0x00000000        0x0 D:\CSR102x_SDK-3.1.1\tools\lib\CSR102x_A05\libgatt_lib_ram.a(patch_streams.o)
 .data          0x00000000        0x0 D:\CSR102x_SDK-3.1.1\tools\lib\CSR102x_A05\libgatt_lib_ram.a(patch_streams.o)
 .bss           0x00000000        0x0 D:\CSR102x_SDK-3.1.1\tools\lib\CSR102x_A05\libgatt_lib_ram.a(patch_streams.o)
 .text.TransformSetState
                0x00000000        0x0 D:\CSR102x_SDK-3.1.1\tools\lib\CSR102x_A05\libgatt_lib_ram.a(patch_streams.o)
 .text.StreamSetAudioBuffer
                0x00000000        0x0 D:\CSR102x_SDK-3.1.1\tools\lib\CSR102x_A05\libgatt_lib_ram.a(patch_streams.o)
 .text          0x00000000        0x0 D:\CSR102x_SDK-3.1.1\tools\lib\CSR102x_A05\libgatt_lib_ram.a(patch_george.o)
 .data          0x00000000        0x0 D:\CSR102x_SDK-3.1.1\tools\lib\CSR102x_A05\libgatt_lib_ram.a(patch_george.o)
 .bss           0x00000000        0x0 D:\CSR102x_SDK-3.1.1\tools\lib\CSR102x_A05\libgatt_lib_ram.a(patch_george.o)
 .text          0x00000000        0x0 D:\CSR102x_SDK-3.1.1\tools\lib\CSR102x_A05\libgatt_lib_ram.a(patch_george_adv.o)
 .data          0x00000000        0x0 D:\CSR102x_SDK-3.1.1\tools\lib\CSR102x_A05\libgatt_lib_ram.a(patch_george_adv.o)
 .bss           0x00000000        0x0 D:\CSR102x_SDK-3.1.1\tools\lib\CSR102x_A05\libgatt_lib_ram.a(patch_george_adv.o)
 .text          0x00000000        0x0 D:\CSR102x_SDK-3.1.1\tools\lib\CSR102x_A05\libgatt_lib_ram.a(patch_george_reset.o)
 .data          0x00000000        0x0 D:\CSR102x_SDK-3.1.1\tools\lib\CSR102x_A05\libgatt_lib_ram.a(patch_george_reset.o)
 .bss           0x00000000        0x0 D:\CSR102x_SDK-3.1.1\tools\lib\CSR102x_A05\libgatt_lib_ram.a(patch_george_reset.o)
 .text.___libgatt_lib_db_5521
                0x00000000        0x0 D:\CSR102x_SDK-3.1.1\tools\lib\CSR102x_A05\libgatt_lib_ram.a(patch_george_reset.o)
 .text          0x00000000        0x0 D:\CSR102x_SDK-3.1.1\tools\lib\CSR102x_A05\libgatt_lib_ram.a(patch_george_test.o)
 .data          0x00000000        0x0 D:\CSR102x_SDK-3.1.1\tools\lib\CSR102x_A05\libgatt_lib_ram.a(patch_george_test.o)
 .bss           0x00000000        0x0 D:\CSR102x_SDK-3.1.1\tools\lib\CSR102x_A05\libgatt_lib_ram.a(patch_george_test.o)
 .text          0x00000000        0x0 D:\CSR102x_SDK-3.1.1\tools\lib\CSR102x_A05\libgatt_lib_ram.a(patch_george_updates.o)
 .data          0x00000000        0x0 D:\CSR102x_SDK-3.1.1\tools\lib\CSR102x_A05\libgatt_lib_ram.a(patch_george_updates.o)
 .bss           0x00000000        0x0 D:\CSR102x_SDK-3.1.1\tools\lib\CSR102x_A05\libgatt_lib_ram.a(patch_george_updates.o)
 .text          0x00000000        0x0 D:\CSR102x_SDK-3.1.1\tools\lib\CSR102x_A05\libgatt_lib_ram.a(patch_george_scheduler.o)
 .data          0x00000000        0x0 D:\CSR102x_SDK-3.1.1\tools\lib\CSR102x_A05\libgatt_lib_ram.a(patch_george_scheduler.o)
 .bss           0x00000000        0x0 D:\CSR102x_SDK-3.1.1\tools\lib\CSR102x_A05\libgatt_lib_ram.a(patch_george_scheduler.o)
 .text          0x00000000        0x0 D:\CSR102x_SDK-3.1.1\tools\lib\CSR102x_A05\libgatt_lib_ram.a(patch_george_ll.o)
 .data          0x00000000        0x0 D:\CSR102x_SDK-3.1.1\tools\lib\CSR102x_A05\libgatt_lib_ram.a(patch_george_ll.o)
 .bss           0x00000000        0x0 D:\CSR102x_SDK-3.1.1\tools\lib\CSR102x_A05\libgatt_lib_ram.a(patch_george_ll.o)
 .text          0x00000000        0x0 D:\CSR102x_SDK-3.1.1\tools\lib\CSR102x_A05\libgatt_lib_ram.a(patch_george_interrupt.o)
 .data          0x00000000        0x0 D:\CSR102x_SDK-3.1.1\tools\lib\CSR102x_A05\libgatt_lib_ram.a(patch_george_interrupt.o)
 .bss           0x00000000        0x0 D:\CSR102x_SDK-3.1.1\tools\lib\CSR102x_A05\libgatt_lib_ram.a(patch_george_interrupt.o)
 .text          0x00000000        0x0 D:\CSR102x_SDK-3.1.1\tools\lib\CSR102x_A05\libgatt_lib_ram.a(patch_main.o)
 .data          0x00000000        0x0 D:\CSR102x_SDK-3.1.1\tools\lib\CSR102x_A05\libgatt_lib_ram.a(patch_main.o)
 .bss           0x00000000        0x0 D:\CSR102x_SDK-3.1.1\tools\lib\CSR102x_A05\libgatt_lib_ram.a(patch_main.o)
 .text          0x00000000        0x0 D:\CSR102x_SDK-3.1.1\tools\lib\CSR102x_A05\libgatt_lib_ram.a(app_proxy_init.o)
 .data          0x00000000        0x0 D:\CSR102x_SDK-3.1.1\tools\lib\CSR102x_A05\libgatt_lib_ram.a(app_proxy_init.o)
 .bss           0x00000000        0x0 D:\CSR102x_SDK-3.1.1\tools\lib\CSR102x_A05\libgatt_lib_ram.a(app_proxy_init.o)
 .text.AppSendUciMsg
                0x00000000        0x0 D:\CSR102x_SDK-3.1.1\tools\lib\CSR102x_A05\libgatt_lib_ram.a(app_proxy_init.o)
 .text          0x00000000        0x0 D:\CSR102x_SDK-3.1.1\tools\lib\CSR102x_A05\libgatt_lib_ram.a(hw_patch_install.o)
 .data          0x00000000        0x0 D:\CSR102x_SDK-3.1.1\tools\lib\CSR102x_A05\libgatt_lib_ram.a(hw_patch_install.o)
 .bss           0x00000000        0x0 D:\CSR102x_SDK-3.1.1\tools\lib\CSR102x_A05\libgatt_lib_ram.a(hw_patch_install.o)

Memory Configuration

Name             Origin             Length             Attributes
p_rom            0x00000000         0x00018000
p_otp            0x00018000         0x00008000
p_cram0          0x00020000         0x00004000
p_cram1          0x00024000         0x00002000
p_cram2          0x00026000         0x00002000
p_smem           0x00028000         0x00020000
p_ram            0x00048000         0x00002000
p_flexi          0x00050000         0x00020000
p_app            0x00000000         0x00070000
d_mtp            0x00000080         0x00000080
d_pmem           0x00000200         0x00000200
d_imem           0x00000600         0x00000080
d_memarb         0x00000800         0x00000800
d_rom            0x00001000         0x00004000
d_fwromcram      0x00005000         0x00001000
d_appdata        0x00006000         0x00004000
d_appconst       0x0000a000         0x00001000
d_fwsmemotp      0x0000b000         0x00001000
d_appsmem        0x0000c000         0x00001000
d_ram            0x0000d000         0x00002000
d_app            0x00000000         0x0000f000
*default*        0x00000000         0xffffffff

Linker script and memory map

LOAD depend_Release_CSR102x_A05\app_gatt_db.o
LOAD depend_Release_CSR102x_A05\conn_param_update.o
LOAD depend_Release_CSR102x_A05\nvm_access.o
LOAD depend_Release_CSR102x_A05\cm_common.o
LOAD depend_Release_CSR102x_A05\cm_hal.o
LOAD depend_Release_CSR102x_A05\cm_private.o
LOAD depend_Release_CSR102x_A05\cm_security.o
LOAD depend_Release_CSR102x_A05\cm_server.o
LOAD depend_Release_CSR102x_A05\cm_observer.o
LOAD depend_Release_CSR102x_A05\cm_peripheral.o
LOAD depend_Release_CSR102x_A05\battery_hw.o
LOAD depend_Release_CSR102x_A05\iot_hw.o
LOAD depend_Release_CSR102x_A05\csr_mesh_ps_ifce.o
LOAD depend_Release_CSR102x_A05\attention_model_handler.o
LOAD depend_Release_CSR102x_A05\battery_model_handler.o
LOAD depend_Release_CSR102x_A05\core_mesh_handler.o
LOAD depend_Release_CSR102x_A05\data_model_handler.o
LOAD depend_Release_CSR102x_A05\watchdog_model_handler.o
LOAD depend_Release_CSR102x_A05\app_util.o
LOAD depend_Release_CSR102x_A05\connection_handler.o
LOAD depend_Release_CSR102x_A05\advertisement_handler.o
LOAD depend_Release_CSR102x_A05\time_model_handler.o
LOAD depend_Release_CSR102x_A05\action_model_handler.o
LOAD depend_Release_CSR102x_A05\extension_model_handler.o
LOAD depend_Release_CSR102x_A05\largeobjecttransfer_model_handler.o
LOAD depend_Release_CSR102x_A05\app_otau_handler.o
LOAD depend_Release_CSR102x_A05\gap_service.o
LOAD depend_Release_CSR102x_A05\gatt_service.o
LOAD depend_Release_CSR102x_A05\mesh_control_service.o
LOAD depend_Release_CSR102x_A05\byte_utils.o
LOAD depend_Release_CSR102x_A05\gaia.o
LOAD depend_Release_CSR102x_A05\gaia_otau.o
LOAD depend_Release_CSR102x_A05\gaia_service.o
LOAD depend_Release_CSR102x_A05\main_app.o
LOAD depend_Release_CSR102x_A05\app_mesh_handler.o
LOAD depend_Release_CSR102x_A05\app_hw.o
LOAD ..\mesh_common\mesh\libraries\CSR102x_A05\libcsrmesh.a
LOAD ..\mesh_common\mesh\libraries\CSR102x_A05\liblight_client.a
LOAD ..\mesh_common\mesh\libraries\CSR102x_A05\libpower_client.a
LOAD ..\mesh_common\mesh\libraries\CSR102x_A05\libswitch_server.a
LOAD ..\mesh_common\mesh\libraries\CSR102x_A05\libextension_server.a
LOAD ..\mesh_common\mesh\libraries\CSR102x_A05\libextension_client.a
LOAD ..\mesh_common\mesh\libraries\CSR102x_A05\libtime_client.a
LOAD ..\mesh_common\mesh\libraries\CSR102x_A05\libtime_server.a
LOAD ..\mesh_common\mesh\libraries\CSR102x_A05\libaction_server.a
LOAD ..\mesh_common\mesh\libraries\CSR102x_A05\libwatchdog_server.a
LOAD ..\mesh_common\mesh\libraries\CSR102x_A05\libping_server.a
LOAD ..\mesh_common\mesh\libraries\CSR102x_A05\libattention_server.a
LOAD ..\mesh_common\mesh\libraries\CSR102x_A05\libdata_server.a
LOAD ..\mesh_common\mesh\libraries\CSR102x_A05\libdata_client.a
LOAD ..\mesh_common\mesh\libraries\CSR102x_A05\libbattery_server.a
LOAD ..\mesh_common\mesh\libraries\CSR102x_A05\liblargeobjecttransfer_server.a
LOAD D:\CSR102x_SDK-3.1.1\tools\lib\CSR102x_A05\libgatt_lib_ram.a
                0x00050000                PROG_APPCODE_START = PROG_FLEXI_START
                0x00000000                APP_SIGNATURE_SIZE = 0x0
                0x00000001                DRAM_APPDATA_MODEL = 0x1
                0x00000000                STORE_OFFSET = 0x0
LOAD D:\CSR102x_SDK-3.1.1\tools\lib\CSR102x_A05\rom_img.elf
                0x00028000                PROG_SMEM_START = 0x28000
                0x00018000                PROG_OTP_START = 0x18000
                0x00050000                PROG_FLEXI_START = 0x50000
                0x00048000                PROG_DRAM_START = 0x48000
                0x00005000                DATA_FW_ROM_CRAM_WINDOW = 0x5000
                0x0000b000                DATA_FW_SMEM_OTP_WINDOW = 0xb000
                0x0000c000                DATA_APP_SMEM_WINDOW = 0xc000
                0x00020000                PROG_CRAM0_START = 0x20000
                0x0000a000                DATA_APPCONST_START = DEFINED (DATA_APPCONST_OVERRIDE)?DATA_APPCONST_OVERRIDE:0xa000
                [0x00000001]                DRAM_APPDATA_MODEL = DEFINED (DRAM_APPDATA_MODEL)?DRAM_APPDATA_MODEL:0x0
                0x00006000                DATA_APPDATA_START = (DRAM_APPDATA_MODEL == 0x0)?DATA_APPHOLE_START:0x6000
                0x00002000                DATA_APPDATA_MAX_SIZE = (DRAM_APPDATA_MODEL == 0x0)?APPDATA_SIZE:(DRAM_APPDATA_MODEL == 0x1)?0x2000:0x4000
                0x80000000                $CODE$ = 0x80000000
                0x00000000                $DATA$ = 0x0
                0x0000ffe0                PROVIDE ($XAP_AH, 0xffe0)
                0x0000ffe1                PROVIDE ($XAP_AL, 0xffe1)
                0x0000ffe2                PROVIDE ($XAP_UXH, 0xffe2)
                0x0000ffe3                PROVIDE ($XAP_UXL, 0xffe3)
                0x0000ffe4                PROVIDE ($XAP_UY, 0xffe4)
                0x0000ffe5                PROVIDE ($XAP_IXH, 0xffe5)
                0x0000ffe6                PROVIDE ($XAP_IXL, 0xffe6)
                0x0000ffe7                PROVIDE ($XAP_IY, 0xffe7)
                0x00000001                ASSERT (DEFINED (DATA_APPCONST_START), DATA_APPCONST_START must be defined.)
                0x00000001                ASSERT (DEFINED (DATA_APPDATA_START), DATA_APPDATA_START not defined - check the firmware is valid.)
                [0x00050000]                PROG_APPCODE_START = DEFINED (PROG_APPCODE_START)?PROG_APPCODE_START:PROG_FLEXI_START
                0x00000001                ASSERT (DEFINED (APP_SIGNATURE_SIZE), APP_SIGNATURE_SIZE must be defined)
                0x00000010                APP_HASH_SIZE = 0x10
                [0x00000000]                STORE_OFFSET = DEFINED (STORE_OFFSET)?STORE_OFFSET:0x0
                0x00000000                STORE_SEG_BASE = (STORE_OFFSET & 0xfffff000)
                0x00000000                STORE_SEG_OFFSET = (STORE_OFFSET & 0xfff)
                0x00050000                PROG_FLEXI_OFFSET = (PROG_FLEXI_START - STORE_SEG_BASE)
                0x00000008                APP_ENC_IV_SIZE = 0x8
                0x00000010                APPHEADER_SIZE = (0x8 + APP_ENC_IV_SIZE)
                0x00000001                ASSERT (((STORE_OFFSET % APPHEADER_SIZE) == 0x0), STORE_OFFSET is not an exact multiple of APPHEADER_SIZE)

.appheader      0x00050000       0x10 load address 0x80050000
                0x00050000                PROG_APPCRT_START = .
 *app_proxy_crt.o(.text)
 .text          0x00050000        0x8 D:\CSR102x_SDK-3.1.1\tools\lib\CSR102x_A05\libgatt_lib_ram.a(app_proxy_crt.o)
                0x00050005                _app_store_header_fw_init
 *app_proxy_crt.o(.text.*)
                0x00050010                . = ALIGN (APPHEADER_SIZE)
 *fill*         0x00050008       0x10 00
                0x00050010                PROG_APPCRT_END = .

.appconst       0x0000a010      0x3f2 load address 0x00050010
                0x0000a010                D_APPCONST_START = .
 *(CONST)
 *(CONST.*)
 *(.rodata)
 .rodata        0x0000a010        0x2 depend_Release_CSR102x_A05\advertisement_handler.o
 *(.rodata.*)
 .rodata.ConnectionParamUpdateEvent
                0x0000a012        0x5 depend_Release_CSR102x_A05\conn_param_update.o
 .rodata.str2.2
                0x0000a017        0x8 depend_Release_CSR102x_A05\cm_hal.o
 .rodata.csr_mesh_pskey_offset_table
                0x0000a01f       0x1e depend_Release_CSR102x_A05\csr_mesh_ps_ifce.o
 .rodata.fh_tx_pwr_map
                0x0000a03d       0x10 depend_Release_CSR102x_A05\core_mesh_handler.o
 .rodata.str2.2
                0x0000a04d       0x75 depend_Release_CSR102x_A05\data_model_handler.o
 .rodata.appHandleConnMgrProcEvent
                0x0000a0c2       0x1c depend_Release_CSR102x_A05\connection_handler.o
 .rodata.C.2..4122.
                0x0000a0de        0x3 depend_Release_CSR102x_A05\advertisement_handler.o
 .rodata.C.6..4212.
                0x0000a0e1        0x6 depend_Release_CSR102x_A05\action_model_handler.o
 .rodata.str2.2
                0x0000a0e7        0x9 depend_Release_CSR102x_A05\app_otau_handler.o
 .rodata.appHandleGaiaOtauEvent
                0x0000a0f0        0xf depend_Release_CSR102x_A05\app_otau_handler.o
 .rodata.str2.2
                0x0000a0ff        0xa depend_Release_CSR102x_A05\gap_service.o
 .rodata.g_service_handler
                0x0000a109        0x2 depend_Release_CSR102x_A05\gap_service.o
 .rodata.g_server_handler
                0x0000a10b        0x2 depend_Release_CSR102x_A05\gatt_service.o
 .rodata.handleAccessWrite
                0x0000a10d        0x7 depend_Release_CSR102x_A05\mesh_control_service.o
 .rodata.g_mesh_server_handlers
                0x0000a114        0x2 depend_Release_CSR102x_A05\mesh_control_service.o
 .rodata.GaiaOtauHandleStoreUpdateMsg
                0x0000a116        0xf depend_Release_CSR102x_A05\gaia_otau.o
 .rodata.str2.2
                0x0000a125       0x12 depend_Release_CSR102x_A05\gaia_otau.o
 .rodata.handleOtauFileTransfer
                0x0000a137        0x8 depend_Release_CSR102x_A05\gaia_otau.o
 .rodata.GaiaOtauHandleVmUpgradeControlCommand
                0x0000a13f       0x16 depend_Release_CSR102x_A05\gaia_otau.o
 .rodata.g_gaia_server_handlers
                0x0000a155        0x2 depend_Release_CSR102x_A05\gaia_service.o
 .rodata.masp_enc_key
                0x0000a157       0x1f ..\mesh_common\mesh\libraries\CSR102x_A05\libcsrmesh.a(csr_mesh_mtl.o)
 .rodata.masp_nw_iv
                0x0000a176        0x8 ..\mesh_common\mesh\libraries\CSR102x_A05\libcsrmesh.a(csr_mesh_mtl.o)
 .rodata.masp_nw_key
                0x0000a17e       0x10 ..\mesh_common\mesh\libraries\CSR102x_A05\libcsrmesh.a(csr_mesh_mtl.o)
 .rodata.str2.2
                0x0000a18e        0x6 ..\mesh_common\mesh\libraries\CSR102x_A05\libcsrmesh.a(csr_mesh_ec_alloc.o)
 .rodata.handleMaspMessage
                0x0000a194       0x17 ..\mesh_common\mesh\libraries\CSR102x_A05\libcsrmesh.a(csr_mesh_masp.o)
 .rodata.str2.2
                0x0000a1ab       0x14 ..\mesh_common\mesh\libraries\CSR102x_A05\libcsrmesh.a(csr_mesh_masp.o)
 .rodata.masp_msg_len
                0x0000a1bf       0x19 ..\mesh_common\mesh\libraries\CSR102x_A05\libcsrmesh.a(csr_mesh_masp.o)
 .rodata.sha256_init_table
                0x0000a1d8       0x10 ..\mesh_common\mesh\libraries\CSR102x_A05\libcsrmesh.a(csr_mesh_sha256_initialise.o)
 .rodata.csr_mesh_ad_data
                0x0000a1e8        0x3 ..\mesh_common\mesh\libraries\CSR102x_A05\libcsrmesh.a(csr1010_scheduler.o)
 .rodata.handleConfigGetDeviceInfo
                0x0000a1eb        0x9 ..\mesh_common\mesh\libraries\CSR102x_A05\libcsrmesh.a(csr_mesh_config_model.o)
 .rodata.configModelServerHandler
                0x0000a1f4       0x11 ..\mesh_common\mesh\libraries\CSR102x_A05\libcsrmesh.a(csr_mesh_config_model.o)
 .rodata.P192_curve_generator_x
                0x0000a205        0xd ..\mesh_common\mesh\libraries\CSR102x_A05\libcsrmesh.a(csr_mesh_ec_math.o)
 .rodata.P192_curve_generator_y
                0x0000a212        0xd ..\mesh_common\mesh\libraries\CSR102x_A05\libcsrmesh.a(csr_mesh_ec_math.o)
 .rodata.sha256_consts
                0x0000a21f       0x80 ..\mesh_common\mesh\libraries\CSR102x_A05\libcsrmesh.a(csr_mesh_sha256_calc_ith_hash_val.o)
 .rodata.patch_rx_conn_pdu
                0x0000a29f       0x10 D:\CSR102x_SDK-3.1.1\tools\lib\CSR102x_A05\libgatt_lib_ram.a(patch_george_rx.o)
 .rodata.C.1..27050.
                0x0000a2af        0x4 D:\CSR102x_SDK-3.1.1\tools\lib\CSR102x_A05\libgatt_lib_ram.a(patch_george_rx.o)
 .rodata.rssi_lut
                0x0000a2b3       0x1f D:\CSR102x_SDK-3.1.1\tools\lib\CSR102x_A05\libgatt_lib_ram.a(patch_george_rssi.o)
 .rodata.atten_level
                0x0000a2d2        0x6 D:\CSR102x_SDK-3.1.1\tools\lib\CSR102x_A05\libgatt_lib_ram.a(patch_george_rssi.o)
 .rodata.lna_gain_level
                0x0000a2d8        0x9 D:\CSR102x_SDK-3.1.1\tools\lib\CSR102x_A05\libgatt_lib_ram.a(patch_george_rssi.o)
 .rodata.patched_smem_inst_handler
                0x0000a2e1        0xe D:\CSR102x_SDK-3.1.1\tools\lib\CSR102x_A05\libgatt_lib_ram.a(patch_reset.o)
 .rodata.patched_uart_instances
                0x0000a2ef       0x12 D:\CSR102x_SDK-3.1.1\tools\lib\CSR102x_A05\libgatt_lib_ram.a(patch_reset.o)
 .rodata.patched_adc_instances
                0x0000a301        0xc D:\CSR102x_SDK-3.1.1\tools\lib\CSR102x_A05\libgatt_lib_ram.a(patch_reset.o)
 .rodata.patched_keyscan_instances
                0x0000a30d        0xa D:\CSR102x_SDK-3.1.1\tools\lib\CSR102x_A05\libgatt_lib_ram.a(patch_reset.o)
 .rodata.patched_edge_capture_functions
                0x0000a317        0xc D:\CSR102x_SDK-3.1.1\tools\lib\CSR102x_A05\libgatt_lib_ram.a(patch_reset.o)
 .rodata.patched_i2c_functions
                0x0000a323        0xa D:\CSR102x_SDK-3.1.1\tools\lib\CSR102x_A05\libgatt_lib_ram.a(patch_reset.o)
 .rodata.ram_build_identifier_integer
                0x0000a32d        0x1 D:\CSR102x_SDK-3.1.1\tools\lib\CSR102x_A05\libgatt_lib_ram.a(id_ram.o)
                0x0000a32d                ram_build_identifier_integer
 .rodata.ram_build_identifier_string
                0x0000a32e       0x25 D:\CSR102x_SDK-3.1.1\tools\lib\CSR102x_A05\libgatt_lib_ram.a(id_ram.o)
                0x0000a32e                ram_build_identifier_string
 .rodata.patch_table_data
                0x0000a353       0x58 D:\CSR102x_SDK-3.1.1\tools\lib\CSR102x_A05\libgatt_lib_ram.a(sw_patch_ram.o)
 .rodata.patch_set_config
                0x0000a3ab        0x5 D:\CSR102x_SDK-3.1.1\tools\lib\CSR102x_A05\libgatt_lib_ram.a(patch_hal_bleradio.o)
 .rodata.hw_patch_b192872
                0x0000a3b0        0x3 D:\CSR102x_SDK-3.1.1\tools\lib\CSR102x_A05\libgatt_lib_ram.a(patch_hal_bleradio.o)
 .rodata.hw_patch_b202168
                0x0000a3b3        0x3 D:\CSR102x_SDK-3.1.1\tools\lib\CSR102x_A05\libgatt_lib_ram.a(patch_hal_bleradio.o)
 .rodata.patch_tx_approx_power_levels_dbm
                0x0000a3b6       0x10 D:\CSR102x_SDK-3.1.1\tools\lib\CSR102x_A05\libgatt_lib_ram.a(patch_hal_bleradio.o)
 .rodata.bg_int_handlers
                0x0000a3c6        0x6 D:\CSR102x_SDK-3.1.1\tools\lib\CSR102x_A05\libgatt_lib_ram.a(patch_bg_int.o)
 .rodata.C.6..26458.
                0x0000a3cc        0x3 D:\CSR102x_SDK-3.1.1\tools\lib\CSR102x_A05\libgatt_lib_ram.a(patch_i2c.o)
 *(.pio_ctrlr_code)
                0x0000a3cf                APP_BUILD_VERSION = .
 *(.app_bld_ver)
                0x0000a3cf                PROG_PATCH_ADDRESS = .
 *(.hw_patch)
 .hw_patch      0x0000a3cf       0x33 D:\CSR102x_SDK-3.1.1\tools\lib\CSR102x_A05\libgatt_lib_ram.a(patch_flashheart_d06.o)
                0x0000a3cf                hw_patch
                0x0000a402                PROG_PATCH_END = .
                0x0000a402                D_APPCONST_END = .
                0x000003f2                APPCONST_SIZE = SIZEOF (.appconst)
                0x00000001                ASSERT (((D_APPCONST_START & 0x1000) == (D_APPCONST_END & 0x1000)), Application uses too much CONST data (page boundary exceeded))

.progapp_appconst
                0x00050010      0x3f2
                0x00050402                . = (. + APPCONST_SIZE)
 *fill*         0x00050010      0x7e4 00

.appdata        0x00006000       0xf9 load address 0x00050402
                0x00006000                DATA_APPINITDATA_START = .
 *(.data)
 *(.data.*)
 .data.gattDatabase
                0x00006000       0xb8 depend_Release_CSR102x_A05\app_gatt_db.o
                0x00006000                gattDatabase
 .data.g_nvm_type
                0x000060b8        0x1 depend_Release_CSR102x_A05\nvm_access.o
 .data.g_cm_app_handler
                0x000060b9        0x2 depend_Release_CSR102x_A05\connection_handler.o
 .data.mesh_ad_data
                0x000060bb        0x3 depend_Release_CSR102x_A05\app_mesh_handler.o
                0x000060bb                mesh_ad_data
 .data.vid_pid_info
                0x000060be        0x4 depend_Release_CSR102x_A05\app_mesh_handler.o
                0x000060be                vid_pid_info
 .data.appearance
                0x000060c2        0xd depend_Release_CSR102x_A05\app_mesh_handler.o
                0x000060c2                appearance
 .data.switch_cmd_tid
                0x000060cf        0x1 depend_Release_CSR102x_A05\app_hw.o
 .data.key_iv_status_values
                0x000060d0        0x8 ..\mesh_common\mesh\libraries\CSR102x_A05\libcsrmesh.a(csr_mesh_masp.o)
 .data.P192_p   0x000060d8        0xd ..\mesh_common\mesh\libraries\CSR102x_A05\libcsrmesh.a(csr_mesh_ec_math.o)
                0x000060d8                ___libcsrmesh_132
 .data.patched_i2c_instances
                0x000060e5        0x1 D:\CSR102x_SDK-3.1.1\tools\lib\CSR102x_A05\libgatt_lib_ram.a(patch_reset.o)
 .data.patched_uci_h4_transport
                0x000060e6        0x6 D:\CSR102x_SDK-3.1.1\tools\lib\CSR102x_A05\libgatt_lib_ram.a(patch_uci_uart_h4.o)
                0x000060e6                ___libgatt_lib_db_5570
 .data.patch_ble_radio_functions
                0x000060ec        0xc D:\CSR102x_SDK-3.1.1\tools\lib\CSR102x_A05\libgatt_lib_ram.a(patch_hal_bleradio.o)
 .data.saved_tx_power_index
                0x000060f8        0x1 D:\CSR102x_SDK-3.1.1\tools\lib\CSR102x_A05\libgatt_lib_ram.a(patch_george_reset.o)
                0x000060f9                DATA_APPINITDATA_END = .
                0x000000f9                APPINITDATA_SIZE = SIZEOF (.appdata)
                0x00000001                ASSERT (((APPCONST_SIZE + APPINITDATA_SIZE) <= 0x1000), Application uses too much CONST / Initialised data)

.progapp_appdata
                0x00050402       0xf9
                0x000504fb                . = (. + APPINITDATA_SIZE)
 *fill*         0x00050402      0x1f2 00

.patchtext      0x000504fb       0xc2 load address 0x800504fb
                0x000504fb                PROG_SW_PATCH_FN_START = .
 *(.patch_text)
 *(.patch_text.*)
                0x000504fb                PROG_SW_PATCH_FN_END = .
                0x000504fb                PROG_DS_PATCH_START = .
 *(.deep_sleep_patch)
 .deep_sleep_patch
                0x000504fb       0xc2 D:\CSR102x_SDK-3.1.1\tools\lib\CSR102x_A05\libgatt_lib_ram.a(patch_reset.o)
                0x0005050f                patch_sysop_sleep_enter
                0x000504fb                patch_sysop_sleep_restore
                0x000505bd                PROG_DS_PATCH_END = .
                0x000000c2                DS_PATCH_SIZE = (PROG_DS_PATCH_END - PROG_DS_PATCH_START)

.apptext        0x000505bd     0x970b load address 0x800505bd
 *(.extra_crt)
 *(.text)
 .text          0x000505bd       0x2f D:\CSR102x_SDK-3.1.1\tools\lib\CSR102x_A05\libgatt_lib_ram.a(sm_ram.o)
                0x000505bd                ___libgatt_lib_db_832
                0x000505e6                SMInit
 .text          0x000505ec        0xa D:\CSR102x_SDK-3.1.1\tools\lib\CSR102x_A05\libgatt_lib_ram.a(sm_key_req_api.o)
                0x000505ec                SMKeyRequestRsp
 .text          0x000505f6        0x3 D:\CSR102x_SDK-3.1.1\tools\lib\CSR102x_A05\libgatt_lib_ram.a(sm_div_approval_api.o)
                0x000505f6                SMDivApprovalRsp
 .text          0x000505f9        0xa D:\CSR102x_SDK-3.1.1\tools\lib\CSR102x_A05\libgatt_lib_ram.a(sm_pairing_auth_api.o)
                0x000505f9                SMPairingAuthRsp
 .text          0x00050603        0x6 D:\CSR102x_SDK-3.1.1\tools\lib\CSR102x_A05\libgatt_lib_ram.a(sm_ltk_api.o)
                0x00050603                SMLongTermKeyRsp
 .text          0x00050609       0x6c D:\CSR102x_SDK-3.1.1\tools\lib\CSR102x_A05\libgatt_lib_ram.a(patch_sm_l2cap_if.o)
                0x00050609                ___libgatt_lib_db_5470
                0x0005061f                ___libgatt_lib_db_5469
                0x00050628                ___libgatt_lib_db_5471
 .text          0x00050675        0x1 D:\CSR102x_SDK-3.1.1\tools\lib\CSR102x_A05\libgatt_lib_ram.a(patch_sm_msg_handler.o)
                0x00050675                ___libgatt_lib_db_5477
 *(.text.*)
 .text.GattGetDatabase
                0x00050676        0x8 depend_Release_CSR102x_A05\app_gatt_db.o
                0x00050676                GattGetDatabase
 .text.GetUpdatedConnParams
                0x0005067e        0xd depend_Release_CSR102x_A05\conn_param_update.o
                0x0005067e                GetUpdatedConnParams
 .text.ConnectionParamUpdateSetCallback
                0x0005068b        0x5 depend_Release_CSR102x_A05\conn_param_update.o
                0x0005068b                ConnectionParamUpdateSetCallback
 .text.handleGapCppTimerExpiry
                0x00050690       0x14 depend_Release_CSR102x_A05\conn_param_update.o
 .text.requestConnParamUpdate
                0x000506a4       0x41 depend_Release_CSR102x_A05\conn_param_update.o
 .text.ConnectionParamUpdateEvent
                0x000506e5       0x94 depend_Release_CSR102x_A05\conn_param_update.o
                0x000506e5                ConnectionParamUpdateEvent
 .text.StopConnParamsUpdate
                0x00050779        0xf depend_Release_CSR102x_A05\conn_param_update.o
                0x00050779                StopConnParamsUpdate
 .text.processNewParams
                0x00050788       0x49 depend_Release_CSR102x_A05\conn_param_update.o
 .text.RequestConnParamsUpdateOnce
                0x000507d1       0x27 depend_Release_CSR102x_A05\conn_param_update.o
                0x000507d1                RequestConnParamsUpdateOnce
 .text.RequestConnParamsUpdate
                0x000507f8       0x28 depend_Release_CSR102x_A05\conn_param_update.o
                0x000507f8                RequestConnParamsUpdate
 .text.Nvm_Read_Secure_Key
                0x00050820        0x9 depend_Release_CSR102x_A05\nvm_access.o
                0x00050820                Nvm_Read_Secure_Key
 .text.Nvm_Init
                0x00050829       0x19 depend_Release_CSR102x_A05\nvm_access.o
                0x00050829                Nvm_Init
 .text.reportPanic
                0x00050842        0x3 depend_Release_CSR102x_A05\nvm_access.o
 .text.Nvm_Write
                0x00050845       0x17 depend_Release_CSR102x_A05\nvm_access.o
                0x00050845                Nvm_Write
 .text.Nvm_Read
                0x0005085c        0xb depend_Release_CSR102x_A05\nvm_access.o
                0x0005085c                Nvm_Read
 .text.NvmProcessEvent
                0x00050867      0x100 depend_Release_CSR102x_A05\nvm_access.o
                0x00050867                NvmProcessEvent
 .text.CMIsAddressResolvableRandom
                0x00050967       0x11 depend_Release_CSR102x_A05\cm_common.o
                0x00050967                CMIsAddressResolvableRandom
 .text.CMSignalNumberOfCompletedPackets
                0x00050978        0x7 depend_Release_CSR102x_A05\cm_common.o
                0x00050978                CMSignalNumberOfCompletedPackets
 .text.CMGetDeviceBondState
                0x0005097f        0xb depend_Release_CSR102x_A05\cm_common.o
                0x0005097f                CMGetDeviceBondState
 .text.CMEnableEarlyWakeup
                0x0005098a        0x9 depend_Release_CSR102x_A05\cm_common.o
                0x0005098a                CMEnableEarlyWakeup
 .text.CMReadRssi
                0x00050993        0x8 depend_Release_CSR102x_A05\cm_common.o
                0x00050993                CMReadRssi
 .text.CMConfigureRadioEvent
                0x0005099b        0xc depend_Release_CSR102x_A05\cm_common.o
                0x0005099b                CMConfigureRadioEvent
 .text.CMGetDevConnParam
                0x000509a7       0x17 depend_Release_CSR102x_A05\cm_common.o
                0x000509a7                CMGetDevConnParam
 .text.CMGetPeerDeviceRole
                0x000509be       0x13 depend_Release_CSR102x_A05\cm_common.o
                0x000509be                CMGetPeerDeviceRole
 .text.CMGetDevState
                0x000509d1       0x13 depend_Release_CSR102x_A05\cm_common.o
                0x000509d1                CMGetDevState
 .text.CMConnectionUpdateSignalingRsp
                0x000509e4        0x2 depend_Release_CSR102x_A05\cm_common.o
                0x000509e4                CMConnectionUpdateSignalingRsp
 .text.CMConnParamUpdateReq
                0x000509e6        0x2 depend_Release_CSR102x_A05\cm_common.o
                0x000509e6                CMConnParamUpdateReq
 .text.CMGetBdAdressFromDeviceId
                0x000509e8       0x17 depend_Release_CSR102x_A05\cm_common.o
                0x000509e8                CMGetBdAdressFromDeviceId
 .text.CMGetBondIdFromDeviceId
                0x000509ff       0x14 depend_Release_CSR102x_A05\cm_common.o
                0x000509ff                CMGetBondIdFromDeviceId
 .text.CMDisconnect
                0x00050a13        0xe depend_Release_CSR102x_A05\cm_common.o
                0x00050a13                CMDisconnect
 .text.CMInit   0x00050a21       0x21 depend_Release_CSR102x_A05\cm_common.o
                0x00050a21                CMInit
 .text.asyncApiTimeout
                0x00050a42        0x7 depend_Release_CSR102x_A05\cm_common.o
 .text.getDeviceIdFromCid
                0x00050a49       0x12 depend_Release_CSR102x_A05\cm_hal.o
 .text.HALGetMsgId
                0x00050a5b        0x5 depend_Release_CSR102x_A05\cm_hal.o
                0x00050a5b                HALGetMsgId
 .text.HALGetMsg
                0x00050a60        0x5 depend_Release_CSR102x_A05\cm_hal.o
                0x00050a60                HALGetMsg
 .text.HALAddNewDevice
                0x00050a65       0x1f depend_Release_CSR102x_A05\cm_hal.o
                0x00050a65                HALAddNewDevice
 .text.HALGetDeviceId
                0x00050a84       0x61 depend_Release_CSR102x_A05\cm_hal.o
                0x00050a84                HALGetDeviceId
 .text.HALParseConnCompleteInd
                0x00050ae5        0xa depend_Release_CSR102x_A05\cm_hal.o
                0x00050ae5                HALParseConnCompleteInd
 .text.HALParseEncChangeInd
                0x00050aef        0xa depend_Release_CSR102x_A05\cm_hal.o
                0x00050aef                HALParseEncChangeInd
 .text.HALParseRadioEventInd
                0x00050af9        0xb depend_Release_CSR102x_A05\cm_hal.o
                0x00050af9                HALParseRadioEventInd
 .text.HALIsAdvertisingReport
                0x00050b04       0x12 depend_Release_CSR102x_A05\cm_hal.o
                0x00050b04                HALIsAdvertisingReport
 .text.HALParseAccessWriteInd
                0x00050b16        0xb depend_Release_CSR102x_A05\cm_hal.o
                0x00050b16                HALParseAccessWriteInd
 .text.HALParseAccessReadInd
                0x00050b21        0xb depend_Release_CSR102x_A05\cm_hal.o
                0x00050b21                HALParseAccessReadInd
 .text.HALParseSmPairingAuthInd
                0x00050b2c        0x1 depend_Release_CSR102x_A05\cm_hal.o
                0x00050b2c                HALParseSmPairingAuthInd
 .text.HALParseConnectionUpdateInd
                0x00050b2d        0xf depend_Release_CSR102x_A05\cm_hal.o
                0x00050b2d                HALParseConnectionUpdateInd
 .text.CMProcessMsg
                0x00050b3c        0x6 depend_Release_CSR102x_A05\cm_hal.o
                0x00050b3c                CMProcessMsg
 .text.HALMatchBluetoothAddress
                0x00050b42       0x2d depend_Release_CSR102x_A05\cm_hal.o
                0x00050b42                HALMatchBluetoothAddress
 .text.HALConnectionUpdateSignallingRsp
                0x00050b6f        0xa depend_Release_CSR102x_A05\cm_hal.o
                0x00050b6f                HALConnectionUpdateSignallingRsp
 .text.HALConnectionParamUpdateReq
                0x00050b79       0x10 depend_Release_CSR102x_A05\cm_hal.o
                0x00050b79                HALConnectionParamUpdateReq
 .text.HALSMDivApprovalRsp
                0x00050b89        0x2 depend_Release_CSR102x_A05\cm_hal.o
                0x00050b89                HALSMDivApprovalRsp
 .text.HALSMKeyRequestResponse
                0x00050b8b        0x8 depend_Release_CSR102x_A05\cm_hal.o
                0x00050b8b                HALSMKeyRequestResponse
 .text.HALSendLongTermKeyAuthRsp
                0x00050b93        0xb depend_Release_CSR102x_A05\cm_hal.o
                0x00050b93                HALSendLongTermKeyAuthRsp
 .text.HALSendValueNotificationExt
                0x00050b9e       0x11 depend_Release_CSR102x_A05\cm_hal.o
                0x00050b9e                HALSendValueNotificationExt
 .text.HALParseDisconnCompleteInd
                0x00050baf       0x12 depend_Release_CSR102x_A05\cm_hal.o
                0x00050baf                HALParseDisconnCompleteInd
 .text.HALSendValueNotification
                0x00050bc1       0x33 depend_Release_CSR102x_A05\cm_hal.o
                0x00050bc1                HALSendValueNotification
 .text.sendNotificationCfmTimer
                0x00050bf4       0x12 depend_Release_CSR102x_A05\cm_hal.o
 .text.HALSMInit
                0x00050c06        0x9 depend_Release_CSR102x_A05\cm_hal.o
                0x00050c06                HALSMInit
 .text.HALServerWriteInit
                0x00050c0f        0x3 depend_Release_CSR102x_A05\cm_hal.o
                0x00050c0f                HALServerWriteInit
 .text.HALGapSetPeripheralMode
                0x00050c12        0xb depend_Release_CSR102x_A05\cm_hal.o
                0x00050c12                HALGapSetPeripheralMode
 .text.HALGapLsFindAdType
                0x00050c1d        0x6 depend_Release_CSR102x_A05\cm_hal.o
                0x00050c1d                HALGapLsFindAdType
 .text.parseName
                0x00050c23       0x60 depend_Release_CSR102x_A05\cm_hal.o
 .text.HALParseAdvertisingReportInd
                0x00050c83       0x24 depend_Release_CSR102x_A05\cm_hal.o
                0x00050c83                HALParseAdvertisingReportInd
 .text.CMGetMainData
                0x00050ca7        0x3 depend_Release_CSR102x_A05\cm_private.o
                0x00050ca7                CMGetMainData
 .text.CMNotifyEventToApplication
                0x00050caa       0x13 depend_Release_CSR102x_A05\cm_private.o
                0x00050caa                CMNotifyEventToApplication
 .text.CMPrivateInit
                0x00050cbd       0x1d depend_Release_CSR102x_A05\cm_private.o
                0x00050cbd                CMPrivateInit
 .text.CMResetDevConnParam
                0x00050cda        0xd depend_Release_CSR102x_A05\cm_private.o
                0x00050cda                CMResetDevConnParam
 .text.CMIsDeviceIdValid
                0x00050ce7        0x7 depend_Release_CSR102x_A05\cm_private.o
                0x00050ce7                CMIsDeviceIdValid
 .text.CMSetDeviceBondState
                0x00050cee        0x9 depend_Release_CSR102x_A05\cm_private.o
                0x00050cee                CMSetDeviceBondState
 .text.CMReportPanic
                0x00050cf7        0x3 depend_Release_CSR102x_A05\cm_private.o
                0x00050cf7                CMReportPanic
 .text.CMSetDeviceEncryptState
                0x00050cfa       0x11 depend_Release_CSR102x_A05\cm_private.o
                0x00050cfa                CMSetDeviceEncryptState
 .text.CMGetConnId
                0x00050d0b        0xe depend_Release_CSR102x_A05\cm_private.o
                0x00050d0b                CMGetConnId
 .text.CMSetConnParam
                0x00050d19       0x13 depend_Release_CSR102x_A05\cm_private.o
                0x00050d19                CMSetConnParam
 .text.CMSetDevState
                0x00050d2c       0x2a depend_Release_CSR102x_A05\cm_private.o
                0x00050d2c                CMSetDevState
 .text.CMGetDeviceId
                0x00050d56        0x7 depend_Release_CSR102x_A05\cm_private.o
                0x00050d56                CMGetDeviceId
 .text.handleSignalLmDisconnectComplete
                0x00050d5d       0x38 depend_Release_CSR102x_A05\cm_private.o
 .text.handleSignalLsDataRxTimingInd
                0x00050d95       0x1c depend_Release_CSR102x_A05\cm_private.o
 .text.handleSignalLsConnUpdateSignallingInd
                0x00050db1       0x1b depend_Release_CSR102x_A05\cm_private.o
 .text.handleSignalLsConnParamUpdateInd
                0x00050dcc       0x1e depend_Release_CSR102x_A05\cm_private.o
 .text.handleSignalLsConnParamUpdateCfm
                0x00050dea       0x18 depend_Release_CSR102x_A05\cm_private.o
 .text.handleSignalLsConnectionUpdate
                0x00050e02       0x1e depend_Release_CSR102x_A05\cm_private.o
 .text.CMProcessEvent
                0x00050e20      0x1a2 depend_Release_CSR102x_A05\cm_private.o
                0x00050e20                CMProcessEvent
 .text.CMGetBondedBDAddr
                0x00050fc2       0x11 depend_Release_CSR102x_A05\cm_security.o
                0x00050fc2                CMGetBondedBDAddr
 .text.handleSignalSMLongTermKeyInd
                0x00050fd3       0x3b depend_Release_CSR102x_A05\cm_security.o
 .text.ClearBondingInfo
                0x0005100e       0x2a depend_Release_CSR102x_A05\cm_security.o
                0x0005100e                ClearBondingInfo
 .text.handleSignalSmSimplePairingCompleteInd
                0x00051038       0x43 depend_Release_CSR102x_A05\cm_security.o
 .text.CMGetBondId
                0x0005107b       0x21 depend_Release_CSR102x_A05\cm_security.o
                0x0005107b                CMGetBondId
 .text.storeBondedDeviceInfo
                0x0005109c       0x32 depend_Release_CSR102x_A05\cm_security.o
 .text.handleSignalSmKeysInd
                0x000510ce       0x26 depend_Release_CSR102x_A05\cm_security.o
 .text.CMSecurityHandleProcessLMEvent
                0x000510f4       0xd0 depend_Release_CSR102x_A05\cm_security.o
                0x000510f4                CMSecurityHandleProcessLMEvent
 .text.CMIsDeviceBonded
                0x000511c4       0x20 depend_Release_CSR102x_A05\cm_security.o
                0x000511c4                CMIsDeviceBonded
 .text.CMSecurityInit
                0x000511e4       0x4c depend_Release_CSR102x_A05\cm_security.o
                0x000511e4                CMSecurityInit
 .text.CMServerGetHandler
                0x00051230       0x13 depend_Release_CSR102x_A05\cm_server.o
                0x00051230                CMServerGetHandler
 .text.CMServerNotifyGenericEvent
                0x00051243       0x1e depend_Release_CSR102x_A05\cm_server.o
                0x00051243                CMServerNotifyGenericEvent
 .text.CMServerNotifyGattEvent
                0x00051261       0x13 depend_Release_CSR102x_A05\cm_server.o
                0x00051261                CMServerNotifyGattEvent
 .text.CMServerInitRegisterHandler
                0x00051274       0x26 depend_Release_CSR102x_A05\cm_server.o
                0x00051274                CMServerInitRegisterHandler
 .text.CMServerHandleProcessLMEvent
                0x0005129a       0xb6 depend_Release_CSR102x_A05\cm_server.o
                0x0005129a                CMServerHandleProcessLMEvent
 .text.CMSendValueNotification
                0x00051350        0x5 depend_Release_CSR102x_A05\cm_server.o
                0x00051350                CMSendValueNotification
 .text.CMSendValueNotificationExt
                0x00051355        0x2 depend_Release_CSR102x_A05\cm_server.o
                0x00051355                CMSendValueNotificationExt
 .text.CMSendAccessRsp
                0x00051357       0x14 depend_Release_CSR102x_A05\cm_server.o
                0x00051357                CMSendAccessRsp
 .text.CMServerInit
                0x0005136b       0x1b depend_Release_CSR102x_A05\cm_server.o
                0x0005136b                CMServerInit
 .text.CMObserverInit
                0x00051386        0x4 depend_Release_CSR102x_A05\cm_observer.o
                0x00051386                CMObserverInit
 .text.CMObserverEnableRawReports
                0x0005138a        0x3 depend_Release_CSR102x_A05\cm_observer.o
                0x0005138a                CMObserverEnableRawReports
 .text.CMObserverHandleProcessLMEvent
                0x0005138d       0x1f depend_Release_CSR102x_A05\cm_observer.o
                0x0005138d                CMObserverHandleProcessLMEvent
 .text.CMPeripheralInit
                0x000513ac        0xa depend_Release_CSR102x_A05\cm_peripheral.o
                0x000513ac                CMPeripheralInit
 .text.CMGetAdvState
                0x000513b6        0x3 depend_Release_CSR102x_A05\cm_peripheral.o
                0x000513b6                CMGetAdvState
 .text.CMIsAdvertising
                0x000513b9        0x9 depend_Release_CSR102x_A05\cm_peripheral.o
                0x000513b9                CMIsAdvertising
 .text.addAdvScanData
                0x000513c2       0x9e depend_Release_CSR102x_A05\cm_peripheral.o
 .text.gattAdvertTimerHandler
                0x00051460       0x1c depend_Release_CSR102x_A05\cm_peripheral.o
 .text.CMSetAdvState
                0x0005147c       0x27 depend_Release_CSR102x_A05\cm_peripheral.o
                0x0005147c                CMSetAdvState
 .text.startAdvertisements
                0x000514a3       0xe4 depend_Release_CSR102x_A05\cm_peripheral.o
 .text.handleSignalLsCancelConnectCfm
                0x00051587       0x23 depend_Release_CSR102x_A05\cm_peripheral.o
 .text.CMPeripheralDirectAdvTimeout
                0x000515aa       0x10 depend_Release_CSR102x_A05\cm_peripheral.o
                0x000515aa                CMPeripheralDirectAdvTimeout
 .text.CMPeripheralHandleProcessLmEvent
                0x000515ba       0x28 depend_Release_CSR102x_A05\cm_peripheral.o
                0x000515ba                CMPeripheralHandleProcessLmEvent
 .text.GetBatteryState
                0x000515e2        0xb depend_Release_CSR102x_A05\battery_hw.o
                0x000515e2                GetBatteryState
 .text.ReadBatteryLevel
                0x000515ed       0x28 depend_Release_CSR102x_A05\battery_hw.o
                0x000515ed                ReadBatteryLevel
 .text.SendLowBatteryIndication
                0x00051615       0x12 depend_Release_CSR102x_A05\battery_hw.o
                0x00051615                SendLowBatteryIndication
 .text.setPioMask
                0x00051627       0x21 depend_Release_CSR102x_A05\iot_hw.o
 .text.GetIOTSwitchMask
                0x00051648       0x21 depend_Release_CSR102x_A05\iot_hw.o
                0x00051648                GetIOTSwitchMask
 .text.IOTSwitchInit
                0x00051669       0x8e depend_Release_CSR102x_A05\iot_hw.o
                0x00051669                IOTSwitchInit
 .text.IOTLightControlDevicePower
                0x000516f7       0x69 depend_Release_CSR102x_A05\iot_hw.o
                0x000516f7                IOTLightControlDevicePower
 .text.IOTLightControlDeviceBlink
                0x00051760       0x4b depend_Release_CSR102x_A05\iot_hw.o
                0x00051760                IOTLightControlDeviceBlink
 .text.IOTLightControlDeviceInit
                0x000517ab       0x2c depend_Release_CSR102x_A05\iot_hw.o
                0x000517ab                IOTLightControlDeviceInit
 .text.getPsKeyOffset
                0x000517d7       0x16 depend_Release_CSR102x_A05\csr_mesh_ps_ifce.o
 .text.CSRmeshPsInit
                0x000517ed        0x2 depend_Release_CSR102x_A05\csr_mesh_ps_ifce.o
                0x000517ed                CSRmeshPsInit
 .text.CSRmeshPsSecureWrite
                0x000517ef        0xa depend_Release_CSR102x_A05\csr_mesh_ps_ifce.o
                0x000517ef                CSRmeshPsSecureWrite
 .text.CSRmeshPsWriteWithOffset
                0x000517f9        0xb depend_Release_CSR102x_A05\csr_mesh_ps_ifce.o
                0x000517f9                CSRmeshPsWriteWithOffset
 .text.CSRmeshPsWrite
                0x00051804        0xa depend_Release_CSR102x_A05\csr_mesh_ps_ifce.o
                0x00051804                CSRmeshPsWrite
 .text.CSRmeshPsSecureRead
                0x0005180e        0xa depend_Release_CSR102x_A05\csr_mesh_ps_ifce.o
                0x0005180e                CSRmeshPsSecureRead
 .text.CSRmeshPsRead
                0x00051818        0xa depend_Release_CSR102x_A05\csr_mesh_ps_ifce.o
                0x00051818                CSRmeshPsRead
 .text.CSRmeshIsPsReadyForAccess
                0x00051822       0x1a depend_Release_CSR102x_A05\csr_mesh_ps_ifce.o
                0x00051822                CSRmeshIsPsReadyForAccess
 .text.CSRmeshPsReadSecureKey
                0x0005183c        0x2 depend_Release_CSR102x_A05\csr_mesh_ps_ifce.o
                0x0005183c                CSRmeshPsReadSecureKey
 .text.AttentionModelDataInit
                0x0005183e        0xf depend_Release_CSR102x_A05\attention_model_handler.o
                0x0005183e                AttentionModelDataInit
 .text.AttentionModelHandlerInit
                0x0005184d        0xb depend_Release_CSR102x_A05\attention_model_handler.o
                0x0005184d                AttentionModelHandlerInit
 .text.attentionModelEventHandler
                0x00051858       0x51 depend_Release_CSR102x_A05\attention_model_handler.o
 .text.attnTimerHandler
                0x000518a9        0xe depend_Release_CSR102x_A05\attention_model_handler.o
 .text.BatteryModelDataInit
                0x000518b7        0x5 depend_Release_CSR102x_A05\battery_model_handler.o
                0x000518b7                BatteryModelDataInit
 .text.BatteryModelHandlerInit
                0x000518bc        0xb depend_Release_CSR102x_A05\battery_model_handler.o
                0x000518bc                BatteryModelHandlerInit
 .text.batteryModelEventHandler
                0x000518c7       0x21 depend_Release_CSR102x_A05\battery_model_handler.o
 .text.AppGetAssociatedState
                0x000518e8        0x5 depend_Release_CSR102x_A05\core_mesh_handler.o
                0x000518e8                AppGetAssociatedState
 .text.IsGattBearerEnabled
                0x000518ed        0x6 depend_Release_CSR102x_A05\core_mesh_handler.o
                0x000518ed                IsGattBearerEnabled
 .text.AppGetStoredBearerState
                0x000518f3        0xb depend_Release_CSR102x_A05\core_mesh_handler.o
                0x000518f3                AppGetStoredBearerState
 .text.AppGetCurrentTTL
                0x000518fe        0x5 depend_Release_CSR102x_A05\core_mesh_handler.o
                0x000518fe                AppGetCurrentTTL
 .text.AppInitializeSeqCache
                0x00051903        0x1 depend_Release_CSR102x_A05\core_mesh_handler.o
                0x00051903                AppInitializeSeqCache
 .text.AppClearSeqCache
                0x00051904        0x2 depend_Release_CSR102x_A05\core_mesh_handler.o
                0x00051904                AppClearSeqCache
 .text.AppSetTxPower
                0x00051906       0x1e depend_Release_CSR102x_A05\core_mesh_handler.o
                0x00051906                AppSetTxPower
 .text.MeshHandlerInit
                0x00051924        0xb depend_Release_CSR102x_A05\core_mesh_handler.o
                0x00051924                MeshHandlerInit
 .text.InitiateAssociation
                0x0005192f        0xb depend_Release_CSR102x_A05\core_mesh_handler.o
                0x0005192f                InitiateAssociation
 .text.attnTimerHandler
                0x0005193a        0xa depend_Release_CSR102x_A05\core_mesh_handler.o
 .text.removeAssocTimeoutHandler
                0x00051944        0xa depend_Release_CSR102x_A05\core_mesh_handler.o
 .text.AppUpdateBearerState
                0x0005194e        0xf depend_Release_CSR102x_A05\core_mesh_handler.o
                0x0005194e                AppUpdateBearerState
 .text.appProcessMeshEvent
                0x0005195d      0x12e depend_Release_CSR102x_A05\core_mesh_handler.o
 .text.DataModelHandlerInit
                0x00051a8b       0x30 depend_Release_CSR102x_A05\data_model_handler.o
                0x00051a8b                DataModelHandlerInit
 .text.rxStreamTimeoutHandler
                0x00051abb       0x10 depend_Release_CSR102x_A05\data_model_handler.o
 .text.endStream
                0x00051acb       0x1c depend_Release_CSR102x_A05\data_model_handler.o
 .text.handleCSRmeshDataStreamSendCfm
                0x00051ae7       0x4d depend_Release_CSR102x_A05\data_model_handler.o
 .text.appDataClientHandler
                0x00051b34       0x2b depend_Release_CSR102x_A05\data_model_handler.o
 .text.streamSendRetryTimer
                0x00051b5f       0x42 depend_Release_CSR102x_A05\data_model_handler.o
 .text.startStream
                0x00051ba1       0x17 depend_Release_CSR102x_A05\data_model_handler.o
 .text.appDataServerHandler
                0x00051bb8      0x11a depend_Release_CSR102x_A05\data_model_handler.o
 .text.WatchdogPause
                0x00051cd2        0x9 depend_Release_CSR102x_A05\watchdog_model_handler.o
                0x00051cd2                WatchdogPause
 .text.WatchdogStop
                0x00051cdb        0xf depend_Release_CSR102x_A05\watchdog_model_handler.o
                0x00051cdb                WatchdogStop
 .text.WatchdogModelDataInit
                0x00051cea        0xd depend_Release_CSR102x_A05\watchdog_model_handler.o
                0x00051cea                WatchdogModelDataInit
 .text.WatchdogStart
                0x00051cf7       0x20 depend_Release_CSR102x_A05\watchdog_model_handler.o
                0x00051cf7                WatchdogStart
 .text.wdogIntervalTimeoutHandler
                0x00051d17       0x6a depend_Release_CSR102x_A05\watchdog_model_handler.o
 .text.WriteWatchdogModelDataOntoNVM
                0x00051d81       0x14 depend_Release_CSR102x_A05\watchdog_model_handler.o
                0x00051d81                WriteWatchdogModelDataOntoNVM
 .text.watchdogModelEventHandler
                0x00051d95       0x4c depend_Release_CSR102x_A05\watchdog_model_handler.o
 .text.ReadWatchdogModelDataFromNVM
                0x00051de1       0x14 depend_Release_CSR102x_A05\watchdog_model_handler.o
                0x00051de1                ReadWatchdogModelDataFromNVM
 .text.WatchdogModelHandlerInit
                0x00051df5       0x20 depend_Release_CSR102x_A05\watchdog_model_handler.o
                0x00051df5                WatchdogModelHandlerInit
 .text.ReportPanic
                0x00051e15        0x3 depend_Release_CSR102x_A05\app_util.o
                0x00051e15                ReportPanic
 .text.InitialiseGattData
                0x00051e18        0xc depend_Release_CSR102x_A05\connection_handler.o
                0x00051e18                InitialiseGattData
 .text.GetConnectedDeviceId
                0x00051e24        0x3 depend_Release_CSR102x_A05\connection_handler.o
                0x00051e24                GetConnectedDeviceId
 .text.IsGaiaOtauInProgress
                0x00051e27        0x3 depend_Release_CSR102x_A05\connection_handler.o
                0x00051e27                IsGaiaOtauInProgress
 .text.GaiaOtauUpgradedApplication
                0x00051e2a        0x3 depend_Release_CSR102x_A05\connection_handler.o
                0x00051e2a                GaiaOtauUpgradedApplication
 .text.IsGaiaOtauUpgradedApplication
                0x00051e2d        0x3 depend_Release_CSR102x_A05\connection_handler.o
                0x00051e2d                IsGaiaOtauUpgradedApplication
 .text.GetConnInterval
                0x00051e30        0x3 depend_Release_CSR102x_A05\connection_handler.o
                0x00051e30                GetConnInterval
 .text.GaiaOtauInProgress
                0x00051e33       0x1d depend_Release_CSR102x_A05\connection_handler.o
                0x00051e33                GaiaOtauInProgress
 .text.AppRequestConnParamUpdate
                0x00051e50       0x3e depend_Release_CSR102x_A05\connection_handler.o
                0x00051e50                AppRequestConnParamUpdate
 .text.AppSetState
                0x00051e8e       0x20 depend_Release_CSR102x_A05\connection_handler.o
                0x00051e8e                AppSetState
 .text.AppCMInit
                0x00051eae       0x22 depend_Release_CSR102x_A05\connection_handler.o
                0x00051eae                AppCMInit
 .text.handleConnNotify
                0x00051ed0       0x8f depend_Release_CSR102x_A05\connection_handler.o
 .text.appHandleConnMgrProcEvent
                0x00051f5f       0xbd depend_Release_CSR102x_A05\connection_handler.o
 .text.GattStopAdverts
                0x0005201c        0xc depend_Release_CSR102x_A05\advertisement_handler.o
                0x0005201c                GattStopAdverts
 .text.GattTriggerLOTAdverts
                0x00052028        0xa depend_Release_CSR102x_A05\advertisement_handler.o
                0x00052028                GattTriggerLOTAdverts
 .text.csrStoreUserAdvData
                0x00052032       0x2e depend_Release_CSR102x_A05\advertisement_handler.o
 .text.gattSetAdvertData
                0x00052060       0x95 depend_Release_CSR102x_A05\advertisement_handler.o
 .text.GattTriggerConnectableAdverts
                0x000520f5       0x60 depend_Release_CSR102x_A05\advertisement_handler.o
                0x000520f5                GattTriggerConnectableAdverts
 .text.gattAdvertTimerHandler
                0x00052155        0x9 depend_Release_CSR102x_A05\advertisement_handler.o
 .text.TimeModelDataInit
                0x0005215e       0x29 depend_Release_CSR102x_A05\time_model_handler.o
                0x0005215e                TimeModelDataInit
 .text.TimeModelHandlerInit
                0x00052187       0x10 depend_Release_CSR102x_A05\time_model_handler.o
                0x00052187                TimeModelHandlerInit
 .text.compTime48ForSkewDrift
                0x00052197       0x37 depend_Release_CSR102x_A05\time_model_handler.o
 .text.sendTimeBroadcast
                0x000521ce       0x28 depend_Release_CSR102x_A05\time_model_handler.o
 .text.tickTimerHandler
                0x000521f6       0x84 depend_Release_CSR102x_A05\time_model_handler.o
 .text.TimeModelGetUTC
                0x0005227a       0x5c depend_Release_CSR102x_A05\time_model_handler.o
                0x0005227a                TimeModelGetUTC
 .text.WriteTimeModelDataOntoNVM
                0x000522d6        0x8 depend_Release_CSR102x_A05\time_model_handler.o
                0x000522d6                WriteTimeModelDataOntoNVM
 .text.timeModelEventHandler
                0x000522de       0xb4 depend_Release_CSR102x_A05\time_model_handler.o
 .text.ReadTimeModelDataFromNVM
                0x00052392        0x8 depend_Release_CSR102x_A05\time_model_handler.o
                0x00052392                ReadTimeModelDataFromNVM
 .text.getDiffTimeInSeconds
                0x0005239a       0x6d depend_Release_CSR102x_A05\action_model_handler.o
 .text.getActionIdIndex
                0x00052407       0x24 depend_Release_CSR102x_A05\action_model_handler.o
 .text.getCurrentRefTime
                0x0005242b        0xc depend_Release_CSR102x_A05\action_model_handler.o
 .text.ActionModelDataInit
                0x00052437       0x2e depend_Release_CSR102x_A05\action_model_handler.o
                0x00052437                ActionModelDataInit
 .text.resetPktAssemblyInfo
                0x00052465       0x1d depend_Release_CSR102x_A05\action_model_handler.o
 .text.pktAssemblyTimeoutHandler
                0x00052482        0x6 depend_Release_CSR102x_A05\action_model_handler.o
 .text.ActionModelHandlerInit
                0x00052488        0xb depend_Release_CSR102x_A05\action_model_handler.o
                0x00052488                ActionModelHandlerInit
 .text.setTimerForNextAction
                0x00052493       0xd0 depend_Release_CSR102x_A05\action_model_handler.o
 .text.writeActionDataOnIndex
                0x00052563       0x78 depend_Release_CSR102x_A05\action_model_handler.o
 .text.WriteActionModelDataOntoNVM
                0x000525db        0xb depend_Release_CSR102x_A05\action_model_handler.o
                0x000525db                WriteActionModelDataOntoNVM
 .text.actionModelEventHandler
                0x000525e6      0x231 depend_Release_CSR102x_A05\action_model_handler.o
 .text.ActionModelSyncCurrentTime
                0x00052817       0x3d depend_Release_CSR102x_A05\action_model_handler.o
                0x00052817                ActionModelSyncCurrentTime
 .text.nextActionTimerHandler
                0x00052854       0x95 depend_Release_CSR102x_A05\action_model_handler.o
 .text.ReadActionModelDataFromNVM
                0x000528e9       0x95 depend_Release_CSR102x_A05\action_model_handler.o
                0x000528e9                ReadActionModelDataFromNVM
 .text.ExtensionModelDataInit
                0x0005297e       0x32 depend_Release_CSR102x_A05\extension_model_handler.o
                0x0005297e                ExtensionModelDataInit
 .text.ExtensionModelHandlerInit
                0x000529b0       0x1a depend_Release_CSR102x_A05\extension_model_handler.o
                0x000529b0                ExtensionModelHandlerInit
 .text.writeExtensionDataOnIndex
                0x000529ca       0x1b depend_Release_CSR102x_A05\extension_model_handler.o
 .text.extensionClientEventHandler
                0x000529e5       0x43 depend_Release_CSR102x_A05\extension_model_handler.o
 .text.WriteExtensionModelDataOntoNVM
                0x00052a28        0x8 depend_Release_CSR102x_A05\extension_model_handler.o
                0x00052a28                WriteExtensionModelDataOntoNVM
 .text.extendedMsgHandler
                0x00052a30       0x52 depend_Release_CSR102x_A05\extension_model_handler.o
 .text.extensionModelEventHandler
                0x00052a82       0xb8 depend_Release_CSR102x_A05\extension_model_handler.o
 .text.ReadExtensionModelDataFromNVM
                0x00052b3a       0x28 depend_Release_CSR102x_A05\extension_model_handler.o
                0x00052b3a                ReadExtensionModelDataFromNVM
 .text.LotModelHandlerInit
                0x00052b62       0x3b depend_Release_CSR102x_A05\largeobjecttransfer_model_handler.o
                0x00052b62                LotModelHandlerInit
 .text.lotModelEventHandler
                0x00052b9d       0xe0 depend_Release_CSR102x_A05\largeobjecttransfer_model_handler.o
 .text.updateStoreType
                0x00052c7d        0x2 depend_Release_CSR102x_A05\app_otau_handler.o
 .text.AppGaiaOtauDataInit
                0x00052c7f        0xa depend_Release_CSR102x_A05\app_otau_handler.o
                0x00052c7f                AppGaiaOtauDataInit
 .text.AppGaiaOtauInit
                0x00052c89        0xd depend_Release_CSR102x_A05\app_otau_handler.o
                0x00052c89                AppGaiaOtauInit
 .text.handleConnParamUpdateCallback
                0x00052c96        0xc depend_Release_CSR102x_A05\app_otau_handler.o
 .text.appHandleGaiaOtauEvent
                0x00052ca2      0x110 depend_Release_CSR102x_A05\app_otau_handler.o
 .text.appHandleGaiaEvent
                0x00052db2       0x14 depend_Release_CSR102x_A05\app_otau_handler.o
 .text.writeDeviceNameToNvm
                0x00052dc6       0x16 depend_Release_CSR102x_A05\gap_service.o
 .text.handleConnMgrProcedureEvent
                0x00052ddc       0x53 depend_Release_CSR102x_A05\gap_service.o
 .text.serviceDataInit
                0x00052e2f       0x1b depend_Release_CSR102x_A05\gap_service.o
 .text.GapInitServerServiceNoBond
                0x00052e4a       0x12 depend_Release_CSR102x_A05\gap_service.o
                0x00052e4a                GapInitServerServiceNoBond
 .text.GapGetNameAndLength
                0x00052e5c        0xc depend_Release_CSR102x_A05\gap_service.o
                0x00052e5c                GapGetNameAndLength
 .text.writeToNvm
                0x00052e68       0x1f depend_Release_CSR102x_A05\gatt_service.o
 .text.handleConnMgrProcedureEvent
                0x00052e87       0x85 depend_Release_CSR102x_A05\gatt_service.o
 .text.readDataFromNVM
                0x00052f0c       0x30 depend_Release_CSR102x_A05\gatt_service.o
 .text.GattExtInitServerService
                0x00052f3c       0x24 depend_Release_CSR102x_A05\gatt_service.o
                0x00052f3c                GattExtInitServerService
 .text.MeshControlServiceDataInit
                0x00052f60        0x8 depend_Release_CSR102x_A05\mesh_control_service.o
                0x00052f60                MeshControlServiceDataInit
 .text.MeshControlNotifyResponse
                0x00052f68       0x2a depend_Release_CSR102x_A05\mesh_control_service.o
                0x00052f68                MeshControlNotifyResponse
 .text.MeshControlInitServerService
                0x00052f92       0x12 depend_Release_CSR102x_A05\mesh_control_service.o
                0x00052f92                MeshControlInitServerService
 .text.handleAccessRead
                0x00052fa4       0x3f depend_Release_CSR102x_A05\mesh_control_service.o
 .text.handleAccessWrite
                0x00052fe3       0xa0 depend_Release_CSR102x_A05\mesh_control_service.o
 .text.handleConnMgrProcedureEvent
                0x00053083        0xe depend_Release_CSR102x_A05\mesh_control_service.o
 .text.SetUint8InArray
                0x00053091        0x7 depend_Release_CSR102x_A05\byte_utils.o
                0x00053091                SetUint8InArray
 .text.SetUint16InArray
                0x00053098        0xd depend_Release_CSR102x_A05\byte_utils.o
                0x00053098                SetUint16InArray
 .text.SetUint32InArray
                0x000530a5       0x16 depend_Release_CSR102x_A05\byte_utils.o
                0x000530a5                SetUint32InArray
 .text.GetUint8FromArray
                0x000530bb        0x4 depend_Release_CSR102x_A05\byte_utils.o
                0x000530bb                GetUint8FromArray
 .text.GetUint16FromArray
                0x000530bf        0x6 depend_Release_CSR102x_A05\byte_utils.o
                0x000530bf                GetUint16FromArray
 .text.GetUint32FromArray
                0x000530c5       0x1b depend_Release_CSR102x_A05\byte_utils.o
                0x000530c5                GetUint32FromArray
 .text.SwapBytes
                0x000530e0       0x1d depend_Release_CSR102x_A05\byte_utils.o
                0x000530e0                SwapBytes
 .text.BufReadUint16BE
                0x000530fd        0xc depend_Release_CSR102x_A05\byte_utils.o
                0x000530fd                BufReadUint16BE
 .text.notifyApplication
                0x00053109       0x15 depend_Release_CSR102x_A05\gaia.o
 .text.GaiaLibInit
                0x0005311e        0x9 depend_Release_CSR102x_A05\gaia.o
                0x0005311e                GaiaLibInit
 .text.GaiaLibHandleConnNotify
                0x00053127        0x1 depend_Release_CSR102x_A05\gaia.o
                0x00053127                GaiaLibHandleConnNotify
 .text.GaiaRegisterCallback
                0x00053128        0x5 depend_Release_CSR102x_A05\gaia.o
                0x00053128                GaiaRegisterCallback
 .text.GaiaSendPacket
                0x0005312d       0x2b depend_Release_CSR102x_A05\gaia.o
                0x0005312d                GaiaSendPacket
 .text.GAIAProcessCommand
                0x00053158      0x124 depend_Release_CSR102x_A05\gaia.o
                0x00053158                GAIAProcessCommand
 .text.initStateVariables
                0x0005327c       0x17 depend_Release_CSR102x_A05\gaia_otau.o
 .text.notifyApplication
                0x00053293       0x15 depend_Release_CSR102x_A05\gaia_otau.o
 .text.notifyApplicationRebootWarning
                0x000532a8        0xa depend_Release_CSR102x_A05\gaia_otau.o
 .text.isNewApp
                0x000532b2        0x9 depend_Release_CSR102x_A05\gaia_otau.o
 .text.getAppStoreToUpgrade
                0x000532bb       0x10 depend_Release_CSR102x_A05\gaia_otau.o
 .text.GaiaOtauConfigStoreMsg
                0x000532cb       0x1a depend_Release_CSR102x_A05\gaia_otau.o
                0x000532cb                GaiaOtauConfigStoreMsg
 .text.GaiaOtauRegisterCallback
                0x000532e5        0x5 depend_Release_CSR102x_A05\gaia_otau.o
                0x000532e5                GaiaOtauRegisterCallback
 .text.GaiaOtauHandleConnNotify
                0x000532ea       0x1f depend_Release_CSR102x_A05\gaia_otau.o
                0x000532ea                GaiaOtauHandleConnNotify
 .text.setDefaultNVM
                0x00053309       0x1a depend_Release_CSR102x_A05\gaia_otau.o
 .text.hostCommitTimeoutHandler
                0x00053323       0x15 depend_Release_CSR102x_A05\gaia_otau.o
 .text.upgradeDeviceSendErrorInd
                0x00053338       0x33 depend_Release_CSR102x_A05\gaia_otau.o
 .text.handleVmUpgradeHostSyncReq
                0x0005336b       0x7f depend_Release_CSR102x_A05\gaia_otau.o
 .text.GaiaOtauContinueUpgrade
                0x000533ea        0xf depend_Release_CSR102x_A05\gaia_otau.o
                0x000533ea                GaiaOtauContinueUpgrade
 .text.upgradeDeviceSendDataBytesReq
                0x000533f9       0x43 depend_Release_CSR102x_A05\gaia_otau.o
 .text.upgradeDeviceSendValidationCfm
                0x0005343c       0x2f depend_Release_CSR102x_A05\gaia_otau.o
 .text.GaiaOtauHandleStoreUpdateMsg
                0x0005346b       0xb0 depend_Release_CSR102x_A05\gaia_otau.o
                0x0005346b                GaiaOtauHandleStoreUpdateMsg
 .text.hostCommitTimeoutCreate
                0x0005351b       0x15 depend_Release_CSR102x_A05\gaia_otau.o
 .text.upgradeDeviceSendStartCfm
                0x00053530       0x3c depend_Release_CSR102x_A05\gaia_otau.o
 .text.handleOtauFileTransfer
                0x0005356c      0x211 depend_Release_CSR102x_A05\gaia_otau.o
 .text.hostCommitTimeoutDelete
                0x0005377d        0xc depend_Release_CSR102x_A05\gaia_otau.o
 .text.runNewApp
                0x00053789       0x16 depend_Release_CSR102x_A05\gaia_otau.o
 .text.GaiaOtauHandleVmUpgradeControlCommand
                0x0005379f      0x142 depend_Release_CSR102x_A05\gaia_otau.o
                0x0005379f                GaiaOtauHandleVmUpgradeControlCommand
 .text.GaiaOtauInit
                0x000538e1       0x40 depend_Release_CSR102x_A05\gaia_otau.o
                0x000538e1                GaiaOtauInit
 .text.GAIASendNotification
                0x00053921       0x28 depend_Release_CSR102x_A05\gaia_service.o
                0x00053921                GAIASendNotification
 .text.handleConnMgrProcedureEvent
                0x00053949       0x89 depend_Release_CSR102x_A05\gaia_service.o
 .text.GAIAInitServerService
                0x000539d2       0x38 depend_Release_CSR102x_A05\gaia_service.o
                0x000539d2                GAIAInitServerService
 .text.AppProcessEvent
                0x00053a0a       0x61 depend_Release_CSR102x_A05\main_app.o
                0x00053a0a                AppProcessEvent
 .text.AppProcessSystemEvent
                0x00053a6b        0xc depend_Release_CSR102x_A05\main_app.o
                0x00053a6b                AppProcessSystemEvent
 .text.AppNvmReady
                0x00053a77        0xd depend_Release_CSR102x_A05\main_app.o
                0x00053a77                AppNvmReady
 .text.AppInit  0x00053a84       0x15 depend_Release_CSR102x_A05\main_app.o
                0x00053a84                AppInit
 .text.AppDataInit
                0x00053a99        0x8 depend_Release_CSR102x_A05\main_app.o
                0x00053a99                AppDataInit
 .text.InitAppSupportedServices
                0x00053aa1       0x21 depend_Release_CSR102x_A05\main_app.o
                0x00053aa1                InitAppSupportedServices
 .text.writeSupportedModelGroupsOntoNVM
                0x00053ac2       0x2a depend_Release_CSR102x_A05\app_mesh_handler.o
 .text.HandleGroupSetMsg
                0x00053aec       0x78 depend_Release_CSR102x_A05\app_mesh_handler.o
                0x00053aec                HandleGroupSetMsg
 .text.AppHandleCurrentTimeUpdate
                0x00053b64        0x2 depend_Release_CSR102x_A05\app_mesh_handler.o
                0x00053b64                AppHandleCurrentTimeUpdate
 .text.AppLightSetLevel
                0x00053b66       0x12 depend_Release_CSR102x_A05\app_mesh_handler.o
                0x00053b66                AppLightSetLevel
 .text.AppPowerSetState
                0x00053b78       0x12 depend_Release_CSR102x_A05\app_mesh_handler.o
                0x00053b78                AppPowerSetState
 .text.RestoreLightState
                0x00053b8a       0x1d depend_Release_CSR102x_A05\app_mesh_handler.o
                0x00053b8a                RestoreLightState
 .text.AppHandleAssociationComplete
                0x00053ba7        0x5 depend_Release_CSR102x_A05\app_mesh_handler.o
                0x00053ba7                AppHandleAssociationComplete
 .text.SetScanDutyCycle
                0x00053bac        0xe depend_Release_CSR102x_A05\app_mesh_handler.o
                0x00053bac                SetScanDutyCycle
 .text.EnableHighDutyScanMode
                0x00053bba        0xd depend_Release_CSR102x_A05\app_mesh_handler.o
                0x00053bba                EnableHighDutyScanMode
 .text.initializeSupportedModelGroups
                0x00053bc7        0xc depend_Release_CSR102x_A05\app_mesh_handler.o
 .text.RemoveAssociation
                0x00053bd3       0x60 depend_Release_CSR102x_A05\app_mesh_handler.o
                0x00053bd3                RemoveAssociation
 .text.readPersistentStore
                0x00053c33      0x112 depend_Release_CSR102x_A05\app_mesh_handler.o
 .text.AppMeshInit
                0x00053d45       0xc4 depend_Release_CSR102x_A05\app_mesh_handler.o
                0x00053d45                AppMeshInit
 .text.WriteSwitchDataOntoNVM
                0x00053e09        0xa depend_Release_CSR102x_A05\app_hw.o
                0x00053e09                WriteSwitchDataOntoNVM
 .text.ReadSwitchDataFromNVM
                0x00053e13        0xa depend_Release_CSR102x_A05\app_hw.o
                0x00053e13                ReadSwitchDataFromNVM
 .text.HandlePIOChangedEvent
                0x00053e1d       0x73 depend_Release_CSR102x_A05\app_hw.o
                0x00053e1d                HandlePIOChangedEvent
 .text.handleButtonDebounce
                0x00053e90      0x137 depend_Release_CSR102x_A05\app_hw.o
 .text.SwitchHardwareInit
                0x00053fc7        0xd depend_Release_CSR102x_A05\app_hw.o
                0x00053fc7                SwitchHardwareInit
 .text.CSRmeshRegisterAppCallback
                0x00053fd4       0x14 ..\mesh_common\mesh\libraries\CSR102x_A05\libcsrmesh.a(csr_mesh.o)
                0x00053fd4                CSRmeshRegisterAppCallback
 .text.CSRmeshGetDeviceID
                0x00053fe8       0x21 ..\mesh_common\mesh\libraries\CSR102x_A05\libcsrmesh.a(csr_mesh.o)
                0x00053fe8                CSRmeshGetDeviceID
 .text.___libcsrmesh_90
                0x00054009       0x1a ..\mesh_common\mesh\libraries\CSR102x_A05\libcsrmesh.a(csr_mesh.o)
                0x00054009                ___libcsrmesh_90
 .text.___libcsrmesh_86
                0x00054023       0x1a ..\mesh_common\mesh\libraries\CSR102x_A05\libcsrmesh.a(csr_mesh.o)
                0x00054023                ___libcsrmesh_86
 .text.___libcsrmesh_85
                0x0005403d        0xc ..\mesh_common\mesh\libraries\CSR102x_A05\libcsrmesh.a(csr_mesh.o)
                0x0005403d                ___libcsrmesh_85
 .text.CSRmeshGetDefaultTTL
                0x00054049       0x1b ..\mesh_common\mesh\libraries\CSR102x_A05\libcsrmesh.a(csr_mesh.o)
                0x00054049                CSRmeshGetDefaultTTL
 .text.CSRmeshSetDefaultTTL
                0x00054064       0x10 ..\mesh_common\mesh\libraries\CSR102x_A05\libcsrmesh.a(csr_mesh.o)
                0x00054064                CSRmeshSetDefaultTTL
 .text.CSRmeshDisableSequenceCache
                0x00054074        0x2 ..\mesh_common\mesh\libraries\CSR102x_A05\libcsrmesh.a(csr_mesh.o)
                0x00054074                CSRmeshDisableSequenceCache
 .text.CSRmeshSetTransmitState
                0x00054076       0x27 ..\mesh_common\mesh\libraries\CSR102x_A05\libcsrmesh.a(csr_mesh.o)
                0x00054076                CSRmeshSetTransmitState
 .text.___libcsrmesh_84
                0x0005409d        0x9 ..\mesh_common\mesh\libraries\CSR102x_A05\libcsrmesh.a(csr_mesh.o)
                0x0005409d                ___libcsrmesh_84
 .text.___libcsrmesh_88
                0x000540a6       0x31 ..\mesh_common\mesh\libraries\CSR102x_A05\libcsrmesh.a(csr_mesh.o)
                0x000540a6                ___libcsrmesh_88
 .text.CSRmeshRemoveNetwork
                0x000540d7       0x24 ..\mesh_common\mesh\libraries\CSR102x_A05\libcsrmesh.a(csr_mesh.o)
                0x000540d7                CSRmeshRemoveNetwork
 .text.CSRMeshUpdateMeshContextData
                0x000540fb       0x9a ..\mesh_common\mesh\libraries\CSR102x_A05\libcsrmesh.a(csr_mesh.o)
 .text.CSRmeshStop
                0x00054195       0x18 ..\mesh_common\mesh\libraries\CSR102x_A05\libcsrmesh.a(csr_mesh.o)
                0x00054195                CSRmeshStop
 .text.CSRmeshStart
                0x000541ad       0x20 ..\mesh_common\mesh\libraries\CSR102x_A05\libcsrmesh.a(csr_mesh.o)
                0x000541ad                CSRmeshStart
 .text.CSRMeshUpdateConfigRole
                0x000541cd       0x14 ..\mesh_common\mesh\libraries\CSR102x_A05\libcsrmesh.a(csr_mesh.o)
 .text.CSRmeshInit
                0x000541e1       0x67 ..\mesh_common\mesh\libraries\CSR102x_A05\libcsrmesh.a(csr_mesh.o)
                0x000541e1                CSRmeshInit
 .text.___libcsrmesh_215
                0x00054248       0x22 ..\mesh_common\mesh\libraries\CSR102x_A05\libcsrmesh.a(csr_mesh_masp_mcp_common.o)
                0x00054248                ___libcsrmesh_215
 .text.___libcsrmesh_281
                0x0005426a        0x5 ..\mesh_common\mesh\libraries\CSR102x_A05\libcsrmesh.a(csr_mesh_mtl.o)
                0x0005426a                ___libcsrmesh_281
 .text.___libcsrmesh_273
                0x0005426f        0x6 ..\mesh_common\mesh\libraries\CSR102x_A05\libcsrmesh.a(csr_mesh_mtl.o)
                0x0005426f                ___libcsrmesh_273
 .text.___libcsrmesh_274
                0x00054275        0x5 ..\mesh_common\mesh\libraries\CSR102x_A05\libcsrmesh.a(csr_mesh_mtl.o)
                0x00054275                ___libcsrmesh_274
 .text.___libcsrmesh_270
                0x0005427a        0x7 ..\mesh_common\mesh\libraries\CSR102x_A05\libcsrmesh.a(csr_mesh_mtl.o)
                0x0005427a                ___libcsrmesh_270
 .text.___libcsrmesh_278
                0x00054281       0x6c ..\mesh_common\mesh\libraries\CSR102x_A05\libcsrmesh.a(csr_mesh_mtl.o)
                0x00054281                ___libcsrmesh_278
 .text.___libcsrmesh_282
                0x000542ed       0x21 ..\mesh_common\mesh\libraries\CSR102x_A05\libcsrmesh.a(csr_mesh_mtl.o)
                0x000542ed                ___libcsrmesh_282
 .text.___libcsrmesh_283
                0x0005430e       0x23 ..\mesh_common\mesh\libraries\CSR102x_A05\libcsrmesh.a(csr_mesh_mtl.o)
                0x0005430e                ___libcsrmesh_283
 .text.___libcsrmesh_272
                0x00054331       0x2d ..\mesh_common\mesh\libraries\CSR102x_A05\libcsrmesh.a(csr_mesh_mtl.o)
                0x00054331                ___libcsrmesh_272
 .text.MtlCryptMessage
                0x0005435e       0x28 ..\mesh_common\mesh\libraries\CSR102x_A05\libcsrmesh.a(csr_mesh_mtl.o)
 .text.___libcsrmesh_276
                0x00054386      0x22b ..\mesh_common\mesh\libraries\CSR102x_A05\libcsrmesh.a(csr_mesh_mtl.o)
                0x00054386                ___libcsrmesh_276
 .text.___libcsrmesh_279
                0x000545b1       0x59 ..\mesh_common\mesh\libraries\CSR102x_A05\libcsrmesh.a(csr_mesh_mtl.o)
                0x000545b1                ___libcsrmesh_279
 .text.___libcsrmesh_271
                0x0005460a       0x1e ..\mesh_common\mesh\libraries\CSR102x_A05\libcsrmesh.a(csr_mesh_mtl.o)
                0x0005460a                ___libcsrmesh_271
 .text.___libcsrmesh_284
                0x00054628       0x33 ..\mesh_common\mesh\libraries\CSR102x_A05\libcsrmesh.a(csr_mesh_mtl.o)
                0x00054628                ___libcsrmesh_284
 .text.___libcsrmesh_118
                0x0005465b        0x3 ..\mesh_common\mesh\libraries\CSR102x_A05\libcsrmesh.a(csr_mesh_ec_alloc.o)
                0x0005465b                ___libcsrmesh_118
 .text.___libcsrmesh_119
                0x0005465e        0x1 ..\mesh_common\mesh\libraries\CSR102x_A05\libcsrmesh.a(csr_mesh_ec_alloc.o)
                0x0005465e                ___libcsrmesh_119
 .text.___libcsrmesh_117
                0x0005465f        0xa ..\mesh_common\mesh\libraries\CSR102x_A05\libcsrmesh.a(csr_mesh_ec_alloc.o)
                0x0005465f                ___libcsrmesh_117
 .text.___libcsrmesh_116
                0x00054669       0x1f ..\mesh_common\mesh\libraries\CSR102x_A05\libcsrmesh.a(csr_mesh_ec_alloc.o)
                0x00054669                ___libcsrmesh_116
 .text.maspFreeConfirmationBuffers
                0x00054688       0x12 ..\mesh_common\mesh\libraries\CSR102x_A05\libcsrmesh.a(csr_mesh_masp.o)
 .text.maspFreeClientPublicKeyBuffer
                0x0005469a        0xc ..\mesh_common\mesh\libraries\CSR102x_A05\libcsrmesh.a(csr_mesh_masp.o)
 .text.maspFreeAlgoBuffer
                0x000546a6        0xa ..\mesh_common\mesh\libraries\CSR102x_A05\libcsrmesh.a(csr_mesh_masp.o)
 .text.maspAllocNmakeKeyPair
                0x000546b0       0x17 ..\mesh_common\mesh\libraries\CSR102x_A05\libcsrmesh.a(csr_mesh_masp.o)
 .text.maspAllocAlgoBuffer
                0x000546c7        0x6 ..\mesh_common\mesh\libraries\CSR102x_A05\libcsrmesh.a(csr_mesh_masp.o)
 .text.maspAllocClientPublicKeyBuffer
                0x000546cd       0x12 ..\mesh_common\mesh\libraries\CSR102x_A05\libcsrmesh.a(csr_mesh_masp.o)
 .text.maspSendEventToApp
                0x000546df       0x28 ..\mesh_common\mesh\libraries\CSR102x_A05\libcsrmesh.a(csr_mesh_masp.o)
 .text.maspResetState
                0x00054707       0x61 ..\mesh_common\mesh\libraries\CSR102x_A05\libcsrmesh.a(csr_mesh_masp.o)
 .text.___libcsrmesh_208
                0x00054768        0x2 ..\mesh_common\mesh\libraries\CSR102x_A05\libcsrmesh.a(csr_mesh_masp.o)
                0x00054768                ___libcsrmesh_208
 .text.maspPrepareKeyIVDistributionAckResponse
                0x0005476a       0x1d ..\mesh_common\mesh\libraries\CSR102x_A05\libcsrmesh.a(csr_mesh_masp.o)
 .text.___libcsrmesh_212
                0x00054787       0x15 ..\mesh_common\mesh\libraries\CSR102x_A05\libcsrmesh.a(csr_mesh_masp.o)
                0x00054787                ___libcsrmesh_212
 .text.___libcsrmesh_204
                0x0005479c        0x9 ..\mesh_common\mesh\libraries\CSR102x_A05\libcsrmesh.a(csr_mesh_masp.o)
                0x0005479c                ___libcsrmesh_204
 .text.maspCalculateConfirmation
                0x000547a5       0x51 ..\mesh_common\mesh\libraries\CSR102x_A05\libcsrmesh.a(csr_mesh_masp.o)
 .text.maspGenerateNetworkIdentifier
                0x000547f6       0x26 ..\mesh_common\mesh\libraries\CSR102x_A05\libcsrmesh.a(csr_mesh_masp.o)
 .text.maspGenerateKeyIVStateSignature
                0x0005481c       0x36 ..\mesh_common\mesh\libraries\CSR102x_A05\libcsrmesh.a(csr_mesh_masp.o)
 .text.maspAllocConfirmationBuffers
                0x00054852       0x26 ..\mesh_common\mesh\libraries\CSR102x_A05\libcsrmesh.a(csr_mesh_masp.o)
 .text.___libcsrmesh_205
                0x00054878       0x10 ..\mesh_common\mesh\libraries\CSR102x_A05\libcsrmesh.a(csr_mesh_masp.o)
                0x00054878                ___libcsrmesh_205
 .text.maspGenerateRandom
                0x00054888       0x2a ..\mesh_common\mesh\libraries\CSR102x_A05\libcsrmesh.a(csr_mesh_masp.o)
 .text.maspUpdateKeyIVStatus
                0x000548b2       0x65 ..\mesh_common\mesh\libraries\CSR102x_A05\libcsrmesh.a(csr_mesh_masp.o)
 .text.maspSendMessage
                0x00054917       0x44 ..\mesh_common\mesh\libraries\CSR102x_A05\libcsrmesh.a(csr_mesh_masp.o)
 .text.handleMaspMessage
                0x0005495b      0x503 ..\mesh_common\mesh\libraries\CSR102x_A05\libcsrmesh.a(csr_mesh_masp.o)
 .text.___libcsrmesh_207
                0x00054e5e       0x58 ..\mesh_common\mesh\libraries\CSR102x_A05\libcsrmesh.a(csr_mesh_masp.o)
                0x00054e5e                ___libcsrmesh_207
 .text.maspWatchdogTimeoutHandler
                0x00054eb6       0x1f ..\mesh_common\mesh\libraries\CSR102x_A05\libcsrmesh.a(csr_mesh_masp.o)
 .text.___libcsrmesh_206
                0x00054ed5       0x57 ..\mesh_common\mesh\libraries\CSR102x_A05\libcsrmesh.a(csr_mesh_masp.o)
                0x00054ed5                ___libcsrmesh_206
 .text.___libcsrmesh_237
                0x00054f2c       0x11 ..\mesh_common\mesh\libraries\CSR102x_A05\libcsrmesh.a(csr_mesh_mcp.o)
                0x00054f2c                ___libcsrmesh_237
 .text.___libcsrmesh_236
                0x00054f3d       0x18 ..\mesh_common\mesh\libraries\CSR102x_A05\libcsrmesh.a(csr_mesh_mcp.o)
                0x00054f3d                ___libcsrmesh_236
 .text.___libcsrmesh_247
                0x00054f55        0x8 ..\mesh_common\mesh\libraries\CSR102x_A05\libcsrmesh.a(csr_mesh_mcp.o)
                0x00054f55                ___libcsrmesh_247
 .text.___libcsrmesh_246
                0x00054f5d        0x3 ..\mesh_common\mesh\libraries\CSR102x_A05\libcsrmesh.a(csr_mesh_mcp.o)
                0x00054f5d                ___libcsrmesh_246
 .text.___libcsrmesh_233
                0x00054f60        0x3 ..\mesh_common\mesh\libraries\CSR102x_A05\libcsrmesh.a(csr_mesh_mcp.o)
                0x00054f60                ___libcsrmesh_233
 .text.___libcsrmesh_235
                0x00054f63        0x3 ..\mesh_common\mesh\libraries\CSR102x_A05\libcsrmesh.a(csr_mesh_mcp.o)
                0x00054f63                ___libcsrmesh_235
 .text.___libcsrmesh_232
                0x00054f66       0x32 ..\mesh_common\mesh\libraries\CSR102x_A05\libcsrmesh.a(csr_mesh_mcp.o)
                0x00054f66                ___libcsrmesh_232
 .text.___libcsrmesh_241
                0x00054f98       0x83 ..\mesh_common\mesh\libraries\CSR102x_A05\libcsrmesh.a(csr_mesh_mcp.o)
                0x00054f98                ___libcsrmesh_241
 .text.___libcsrmesh_245
                0x0005501b       0x13 ..\mesh_common\mesh\libraries\CSR102x_A05\libcsrmesh.a(csr_mesh_mcp.o)
                0x0005501b                ___libcsrmesh_245
 .text.___libcsrmesh_239
                0x0005502e      0x22e ..\mesh_common\mesh\libraries\CSR102x_A05\libcsrmesh.a(csr_mesh_mcp.o)
                0x0005502e                ___libcsrmesh_239
 .text.___libcsrmesh_234
                0x0005525c        0x5 ..\mesh_common\mesh\libraries\CSR102x_A05\libcsrmesh.a(csr_mesh_mcp.o)
                0x0005525c                ___libcsrmesh_234
 .text.___libcsrmesh_459
                0x00055261       0x2e ..\mesh_common\mesh\libraries\CSR102x_A05\libcsrmesh.a(csr_mesh_mcp.o)
                0x00055261                ___libcsrmesh_459
 .text.___libcsrmesh_238
                0x0005528f       0x4f ..\mesh_common\mesh\libraries\CSR102x_A05\libcsrmesh.a(csr_mesh_mcp.o)
                0x0005528f                ___libcsrmesh_238
 .text.___libcsrmesh_297
                0x000552de       0x97 ..\mesh_common\mesh\libraries\CSR102x_A05\libcsrmesh.a(csr_mesh_sha256_get_results.o)
                0x000552de                ___libcsrmesh_297
 .text.___libcsrmesh_308
                0x00055375       0x24 ..\mesh_common\mesh\libraries\CSR102x_A05\libcsrmesh.a(csr_mesh_sha256_hmac.o)
                0x00055375                ___libcsrmesh_308
 .text.___libcsrmesh_304
                0x00055399       0x43 ..\mesh_common\mesh\libraries\CSR102x_A05\libcsrmesh.a(csr_mesh_sha256_hmac.o)
                0x00055399                ___libcsrmesh_304
 .text.CSRmeshCalculateSHA256Hash
                0x000553dc       0x22 ..\mesh_common\mesh\libraries\CSR102x_A05\libcsrmesh.a(csr_mesh_sha256_hmac.o)
                0x000553dc                CSRmeshCalculateSHA256Hash
 .text.___libcsrmesh_307
                0x000553fe       0x3d ..\mesh_common\mesh\libraries\CSR102x_A05\libcsrmesh.a(csr_mesh_sha256_hmac.o)
                0x000553fe                ___libcsrmesh_307
 .text.___libcsrmesh_305
                0x0005543b       0x79 ..\mesh_common\mesh\libraries\CSR102x_A05\libcsrmesh.a(csr_mesh_sha256_hmac.o)
                0x0005543b                ___libcsrmesh_305
 .text.___libcsrmesh_311
                0x000554b4       0x19 ..\mesh_common\mesh\libraries\CSR102x_A05\libcsrmesh.a(csr_mesh_sha256_initialise.o)
                0x000554b4                ___libcsrmesh_311
 .text.sha256_process_data
                0x000554cd       0x85 ..\mesh_common\mesh\libraries\CSR102x_A05\libcsrmesh.a(csr_mesh_sha256_process_data.o)
 .text.___libcsrmesh_317
                0x00055552        0xc ..\mesh_common\mesh\libraries\CSR102x_A05\libcsrmesh.a(csr_mesh_sha256_process_data.o)
                0x00055552                ___libcsrmesh_317
 .text.___libcsrmesh_318
                0x0005555e        0xa ..\mesh_common\mesh\libraries\CSR102x_A05\libcsrmesh.a(csr_mesh_sha256_process_data.o)
                0x0005555e                ___libcsrmesh_318
 .text.___libcsrmesh_337
                0x00055568       0x11 ..\mesh_common\mesh\libraries\CSR102x_A05\libcsrmesh.a(csr_mesh_bearer.o)
                0x00055568                ___libcsrmesh_337
 .text.___libcsrmesh_330
                0x00055579       0x25 ..\mesh_common\mesh\libraries\CSR102x_A05\libcsrmesh.a(csr_mesh_bearer.o)
                0x00055579                ___libcsrmesh_330
 .text.___libcsrmesh_336
                0x0005559e        0xa ..\mesh_common\mesh\libraries\CSR102x_A05\libcsrmesh.a(csr_mesh_bearer.o)
                0x0005559e                ___libcsrmesh_336
 .text.___libcsrmesh_335
                0x000555a8       0x1f ..\mesh_common\mesh\libraries\CSR102x_A05\libcsrmesh.a(csr_mesh_bearer.o)
                0x000555a8                ___libcsrmesh_335
 .text.___libcsrmesh_332
                0x000555c7        0x8 ..\mesh_common\mesh\libraries\CSR102x_A05\libcsrmesh.a(csr_mesh_bearer.o)
                0x000555c7                ___libcsrmesh_332
 .text.___libcsrmesh_331
                0x000555cf       0x35 ..\mesh_common\mesh\libraries\CSR102x_A05\libcsrmesh.a(csr_mesh_bearer.o)
                0x000555cf                ___libcsrmesh_331
 .text.___libcsrmesh_333
                0x00055604       0x21 ..\mesh_common\mesh\libraries\CSR102x_A05\libcsrmesh.a(csr_mesh_bearer.o)
                0x00055604                ___libcsrmesh_333
 .text.___libcsrmesh_329
                0x00055625        0x8 ..\mesh_common\mesh\libraries\CSR102x_A05\libcsrmesh.a(csr_mesh_bearer.o)
                0x00055625                ___libcsrmesh_329
 .text.___libcsrmesh_334
                0x0005562d       0x62 ..\mesh_common\mesh\libraries\CSR102x_A05\libcsrmesh.a(csr_mesh_bearer.o)
                0x0005562d                ___libcsrmesh_334
 .text.___libcsrmesh_353
                0x0005568f       0x11 ..\mesh_common\mesh\libraries\CSR102x_A05\libcsrmesh.a(csr_mesh_bearer_porting_util.o)
                0x0005568f                ___libcsrmesh_353
 .text.___libcsrmesh_350
                0x000556a0       0x19 ..\mesh_common\mesh\libraries\CSR102x_A05\libcsrmesh.a(csr_mesh_bearer_porting_util.o)
                0x000556a0                ___libcsrmesh_350
 .text.___libcsrmesh_352
                0x000556b9       0x1d ..\mesh_common\mesh\libraries\CSR102x_A05\libcsrmesh.a(csr_mesh_bearer_porting_util.o)
                0x000556b9                ___libcsrmesh_352
 .text.___libcsrmesh_355
                0x000556d6        0x3 ..\mesh_common\mesh\libraries\CSR102x_A05\libcsrmesh.a(csr_mesh_bearer_porting_util.o)
                0x000556d6                ___libcsrmesh_355
 .text.___libcsrmesh_354
                0x000556d9        0x3 ..\mesh_common\mesh\libraries\CSR102x_A05\libcsrmesh.a(csr_mesh_bearer_porting_util.o)
                0x000556d9                ___libcsrmesh_354
 .text.___libcsrmesh_351
                0x000556dc       0x58 ..\mesh_common\mesh\libraries\CSR102x_A05\libcsrmesh.a(csr_mesh_bearer_porting_util.o)
                0x000556dc                ___libcsrmesh_351
 .text.checkMessageInTransmitQueue
                0x00055734       0x40 ..\mesh_common\mesh\libraries\CSR102x_A05\libcsrmesh.a(csr_mesh_bearer_porting_util.o)
 .text.___libcsrmesh_349
                0x00055774       0x74 ..\mesh_common\mesh\libraries\CSR102x_A05\libcsrmesh.a(csr_mesh_bearer_porting_util.o)
                0x00055774                ___libcsrmesh_349
 .text.CSRSchedGetScanDutyCycle
                0x000557e8       0x1b ..\mesh_common\mesh\libraries\CSR102x_A05\libcsrmesh.a(csr1010_scheduler.o)
                0x000557e8                CSRSchedGetScanDutyCycle
 .text.IsCSRSchedRunning
                0x00055803        0x5 ..\mesh_common\mesh\libraries\CSR102x_A05\libcsrmesh.a(csr1010_scheduler.o)
                0x00055803                IsCSRSchedRunning
 .text.CSRSchedLeAdvScanDisable
                0x00055808       0x12 ..\mesh_common\mesh\libraries\CSR102x_A05\libcsrmesh.a(csr1010_scheduler.o)
 .text.CSRSchedLeStartScan
                0x0005581a       0x44 ..\mesh_common\mesh\libraries\CSR102x_A05\libcsrmesh.a(csr1010_scheduler.o)
 .text.CSRSchedEnableListening
                0x0005585e       0x13 ..\mesh_common\mesh\libraries\CSR102x_A05\libcsrmesh.a(csr1010_scheduler.o)
                0x0005585e                CSRSchedEnableListening
 .text.CSRSchedSetScanDutyCycle
                0x00055871       0xc8 ..\mesh_common\mesh\libraries\CSR102x_A05\libcsrmesh.a(csr1010_scheduler.o)
                0x00055871                CSRSchedSetScanDutyCycle
 .text.CSRSchedHandleIncomingData
                0x00055939       0x4f ..\mesh_common\mesh\libraries\CSR102x_A05\libcsrmesh.a(csr1010_scheduler.o)
                0x00055939                CSRSchedHandleIncomingData
 .text.CSRSchedMeshLeStartAdverts
                0x00055988       0xa0 ..\mesh_common\mesh\libraries\CSR102x_A05\libcsrmesh.a(csr1010_scheduler.o)
 .text.CSRSchedSendPriorityMsg
                0x00055a28       0x22 ..\mesh_common\mesh\libraries\CSR102x_A05\libcsrmesh.a(csr1010_scheduler.o)
                0x00055a28                CSRSchedSendPriorityMsg
 .text.CSRSchedAdvertTimeoutHandler
                0x00055a4a       0x6e ..\mesh_common\mesh\libraries\CSR102x_A05\libcsrmesh.a(csr1010_scheduler.o)
 .text.CSRSchedLeStartUserAdverts
                0x00055ab8       0x7c ..\mesh_common\mesh\libraries\CSR102x_A05\libcsrmesh.a(csr1010_scheduler.o)
 .text.CSRSchedMeshLeStartAdvertsFromQueue
                0x00055b34       0x13 ..\mesh_common\mesh\libraries\CSR102x_A05\libcsrmesh.a(csr1010_scheduler.o)
 .text.CSRSchedScanTimeoutHandler
                0x00055b47       0x13 ..\mesh_common\mesh\libraries\CSR102x_A05\libcsrmesh.a(csr1010_scheduler.o)
 .text.CSRSchedStart
                0x00055b5a       0x24 ..\mesh_common\mesh\libraries\CSR102x_A05\libcsrmesh.a(csr1010_scheduler.o)
                0x00055b5a                CSRSchedStart
 .text.CSRSchedNotifyGattEvent
                0x00055b7e       0xae ..\mesh_common\mesh\libraries\CSR102x_A05\libcsrmesh.a(csr1010_scheduler.o)
                0x00055b7e                CSRSchedNotifyGattEvent
 .text.CSRSchedMissingRadioEventTimeoutHandler
                0x00055c2c        0xd ..\mesh_common\mesh\libraries\CSR102x_A05\libcsrmesh.a(csr1010_scheduler.o)
 .text.CSRSchedConnectionBusyTimeoutHandler
                0x00055c39       0x23 ..\mesh_common\mesh\libraries\CSR102x_A05\libcsrmesh.a(csr1010_scheduler.o)
 .text.CSRSchedSendUserAdv
                0x00055c5c       0x47 ..\mesh_common\mesh\libraries\CSR102x_A05\libcsrmesh.a(csr1010_scheduler.o)
                0x00055c5c                CSRSchedSendUserAdv
 .text.CSRSchedGetConfigParams
                0x00055ca3       0x41 ..\mesh_common\mesh\libraries\CSR102x_A05\libcsrmesh.a(csr1010_scheduler.o)
                0x00055ca3                CSRSchedGetConfigParams
 .text.CSRSchedSetConfigParams
                0x00055ce4       0x76 ..\mesh_common\mesh\libraries\CSR102x_A05\libcsrmesh.a(csr1010_scheduler.o)
                0x00055ce4                CSRSchedSetConfigParams
 .text.CsrSchedSetTxPower
                0x00055d5a        0x6 ..\mesh_common\mesh\libraries\CSR102x_A05\libcsrmesh.a(csr1010_scheduler.o)
                0x00055d5a                CsrSchedSetTxPower
 .text.CSRSchedEnableRadioEvent
                0x00055d60       0x12 ..\mesh_common\mesh\libraries\CSR102x_A05\libcsrmesh.a(csr1010_scheduler.o)
                0x00055d60                CSRSchedEnableRadioEvent
 .text.CSRSchedDisableRadioEvent
                0x00055d72       0x11 ..\mesh_common\mesh\libraries\CSR102x_A05\libcsrmesh.a(csr1010_scheduler.o)
                0x00055d72                CSRSchedDisableRadioEvent
 .text.___libcsrmesh_363
                0x00055d83        0x6 ..\mesh_common\mesh\libraries\CSR102x_A05\libcsrmesh.a(csr_mesh_hal_ifce.o)
                0x00055d83                ___libcsrmesh_363
 .text.___libcsrmesh_367
                0x00055d89        0x5 ..\mesh_common\mesh\libraries\CSR102x_A05\libcsrmesh.a(csr_mesh_hal_ifce.o)
                0x00055d89                ___libcsrmesh_367
 .text.___libcsrmesh_362
                0x00055d8e        0xc ..\mesh_common\mesh\libraries\CSR102x_A05\libcsrmesh.a(csr_mesh_hal_ifce.o)
                0x00055d8e                ___libcsrmesh_362
 .text.___libcsrmesh_366
                0x00055d9a        0xb ..\mesh_common\mesh\libraries\CSR102x_A05\libcsrmesh.a(csr_mesh_hal_ifce.o)
                0x00055d9a                ___libcsrmesh_366
 .text.___libcsrmesh_365
                0x00055da5        0xe ..\mesh_common\mesh\libraries\CSR102x_A05\libcsrmesh.a(csr_mesh_hal_ifce.o)
                0x00055da5                ___libcsrmesh_365
 .text.___libcsrmesh_364
                0x00055db3        0x3 ..\mesh_common\mesh\libraries\CSR102x_A05\libcsrmesh.a(csr_mesh_hal_ifce.o)
                0x00055db3                ___libcsrmesh_364
 .text.___libcsrmesh_371
                0x00055db6       0x5f ..\mesh_common\mesh\libraries\CSR102x_A05\libcsrmesh.a(csr_mesh_security_ifce_101x.o)
                0x00055db6                ___libcsrmesh_371
 .text.___libcsrmesh_373
                0x00055e15       0x24 ..\mesh_common\mesh\libraries\CSR102x_A05\libcsrmesh.a(csr_mesh_security_ifce_101x.o)
                0x00055e15                ___libcsrmesh_373
 .text.___libcsrmesh_372
                0x00055e39       0x21 ..\mesh_common\mesh\libraries\CSR102x_A05\libcsrmesh.a(csr_mesh_security_ifce_101x.o)
                0x00055e39                ___libcsrmesh_372
 .text.___libcsrmesh_111
                0x00055e5a       0x15 ..\mesh_common\mesh\libraries\CSR102x_A05\libcsrmesh.a(csr_mesh_config_model.o)
                0x00055e5a                ___libcsrmesh_111
 .text.ConfigModelInit
                0x00055e6f       0x1b ..\mesh_common\mesh\libraries\CSR102x_A05\libcsrmesh.a(csr_mesh_config_model.o)
                0x00055e6f                ConfigModelInit
 .text.handleConfigGetDeviceInfo
                0x00055e8a      0x150 ..\mesh_common\mesh\libraries\CSR102x_A05\libcsrmesh.a(csr_mesh_config_model.o)
 .text.configModelServerHandler
                0x00055fda      0x30d ..\mesh_common\mesh\libraries\CSR102x_A05\libcsrmesh.a(csr_mesh_config_model.o)
 .text.BearerModelInit
                0x000562e7       0x14 ..\mesh_common\mesh\libraries\CSR102x_A05\libcsrmesh.a(csr_mesh_bearer_model.o)
                0x000562e7                BearerModelInit
 .text.handleMcpBearerModelMsg
                0x000562fb       0xb4 ..\mesh_common\mesh\libraries\CSR102x_A05\libcsrmesh.a(csr_mesh_bearer_model.o)
 .text.free_buffers
                0x000563af        0x3 ..\mesh_common\mesh\libraries\CSR102x_A05\libcsrmesh.a(csr_mesh_ec_math.o)
 .text.ec_math_192_double
                0x000563b2       0xb5 ..\mesh_common\mesh\libraries\CSR102x_A05\libcsrmesh.a(csr_mesh_ec_math.o)
 .text.ec_math_192_mul
                0x00056467      0x116 ..\mesh_common\mesh\libraries\CSR102x_A05\libcsrmesh.a(csr_mesh_ec_math.o)
 .text.___libcsrmesh_127
                0x0005657d        0xc ..\mesh_common\mesh\libraries\CSR102x_A05\libcsrmesh.a(csr_mesh_ec_math.o)
                0x0005657d                ___libcsrmesh_127
 .text.___libcsrmesh_128
                0x00056589       0x2e ..\mesh_common\mesh\libraries\CSR102x_A05\libcsrmesh.a(csr_mesh_ec_math.o)
                0x00056589                ___libcsrmesh_128
 .text.GroupModelInit
                0x000565b7       0x14 ..\mesh_common\mesh\libraries\CSR102x_A05\libcsrmesh.a(csr_mesh_group_model.o)
                0x000565b7                GroupModelInit
 .text.groupModelServerHandler
                0x000565cb      0x11d ..\mesh_common\mesh\libraries\CSR102x_A05\libcsrmesh.a(csr_mesh_group_model.o)
 .text.___libcsrmesh_159
                0x000566e8       0x2e ..\mesh_common\mesh\libraries\CSR102x_A05\libcsrmesh.a(csr_mesh_large_num.o)
                0x000566e8                ___libcsrmesh_159
 .text.___libcsrmesh_157
                0x00056716        0xc ..\mesh_common\mesh\libraries\CSR102x_A05\libcsrmesh.a(csr_mesh_large_num.o)
                0x00056716                ___libcsrmesh_157
 .text.___libcsrmesh_161
                0x00056722       0x10 ..\mesh_common\mesh\libraries\CSR102x_A05\libcsrmesh.a(csr_mesh_large_num.o)
                0x00056722                ___libcsrmesh_161
 .text.___libcsrmesh_168
                0x00056732       0x25 ..\mesh_common\mesh\libraries\CSR102x_A05\libcsrmesh.a(csr_mesh_large_num.o)
                0x00056732                ___libcsrmesh_168
 .text.___libcsrmesh_158
                0x00056757       0x64 ..\mesh_common\mesh\libraries\CSR102x_A05\libcsrmesh.a(csr_mesh_large_num.o)
                0x00056757                ___libcsrmesh_158
 .text.___libcsrmesh_169
                0x000567bb       0x4f ..\mesh_common\mesh\libraries\CSR102x_A05\libcsrmesh.a(csr_mesh_large_num.o)
                0x000567bb                ___libcsrmesh_169
 .text.___libcsrmesh_165
                0x0005680a       0x18 ..\mesh_common\mesh\libraries\CSR102x_A05\libcsrmesh.a(csr_mesh_large_num.o)
                0x0005680a                ___libcsrmesh_165
 .text.___libcsrmesh_167
                0x00056822       0x3b ..\mesh_common\mesh\libraries\CSR102x_A05\libcsrmesh.a(csr_mesh_large_num.o)
                0x00056822                ___libcsrmesh_167
 .text.___libcsrmesh_166
                0x0005685d       0x36 ..\mesh_common\mesh\libraries\CSR102x_A05\libcsrmesh.a(csr_mesh_large_num.o)
                0x0005685d                ___libcsrmesh_166
 .text.___libcsrmesh_160
                0x00056893        0x8 ..\mesh_common\mesh\libraries\CSR102x_A05\libcsrmesh.a(csr_mesh_large_num.o)
                0x00056893                ___libcsrmesh_160
 .text.___libcsrmesh_171
                0x0005689b       0xb6 ..\mesh_common\mesh\libraries\CSR102x_A05\libcsrmesh.a(csr_mesh_large_num.o)
                0x0005689b                ___libcsrmesh_171
 .text.___libcsrmesh_155
                0x00056951        0x2 ..\mesh_common\mesh\libraries\CSR102x_A05\libcsrmesh.a(csr_mesh_large_num.o)
                0x00056951                ___libcsrmesh_155
 .text.___libcsrmesh_156
                0x00056953        0x2 ..\mesh_common\mesh\libraries\CSR102x_A05\libcsrmesh.a(csr_mesh_large_num.o)
                0x00056953                ___libcsrmesh_156
 .text.___libcsrmesh_170
                0x00056955       0xac ..\mesh_common\mesh\libraries\CSR102x_A05\libcsrmesh.a(csr_mesh_large_num.o)
                0x00056955                ___libcsrmesh_170
 .text.___libcsrmesh_163
                0x00056a01       0x14 ..\mesh_common\mesh\libraries\CSR102x_A05\libcsrmesh.a(csr_mesh_large_num.o)
                0x00056a01                ___libcsrmesh_163
 .text.___libcsrmesh_164
                0x00056a15        0x5 ..\mesh_common\mesh\libraries\CSR102x_A05\libcsrmesh.a(csr_mesh_large_num.o)
                0x00056a15                ___libcsrmesh_164
 .text.___libcsrmesh_162
                0x00056a1a       0x21 ..\mesh_common\mesh\libraries\CSR102x_A05\libcsrmesh.a(csr_mesh_large_num.o)
                0x00056a1a                ___libcsrmesh_162
 .text.___libcsrmesh_286
                0x00056a3b       0x44 ..\mesh_common\mesh\libraries\CSR102x_A05\libcsrmesh.a(csr_mesh_sha_add_to_cache.o)
                0x00056a3b                ___libcsrmesh_286
 .text.sha256_calc_ith_hash_val
                0x00056a7f      0x1b8 ..\mesh_common\mesh\libraries\CSR102x_A05\libcsrmesh.a(csr_mesh_sha256_calc_ith_hash_val.o)
 .text.___libcsrmesh_292
                0x00056c37       0x16 ..\mesh_common\mesh\libraries\CSR102x_A05\libcsrmesh.a(csr_mesh_sha256_calc_ith_hash_val.o)
                0x00056c37                ___libcsrmesh_292
 .text.___libcsrmesh_293
                0x00056c4d       0x37 ..\mesh_common\mesh\libraries\CSR102x_A05\libcsrmesh.a(csr_mesh_sha256_calc_ith_hash_val.o)
                0x00056c4d                ___libcsrmesh_293
 .text.___libcsrmesh_294
                0x00056c84        0xb ..\mesh_common\mesh\libraries\CSR102x_A05\libcsrmesh.a(csr_mesh_sha256_calc_ith_hash_val.o)
                0x00056c84                ___libcsrmesh_294
 .text.lightModelClientHandler
                0x00056c8f       0x83 ..\mesh_common\mesh\libraries\CSR102x_A05\liblight_client.a(light_client.o)
 .text.LightSetLevel
                0x00056d12       0x2d ..\mesh_common\mesh\libraries\CSR102x_A05\liblight_client.a(light_client.o)
                0x00056d12                LightSetLevel
 .text.LightModelClientInit
                0x00056d3f       0x13 ..\mesh_common\mesh\libraries\CSR102x_A05\liblight_client.a(light_client.o)
                0x00056d3f                LightModelClientInit
 .text.powerModelClientHandler
                0x00056d52       0x46 ..\mesh_common\mesh\libraries\CSR102x_A05\libpower_client.a(power_client.o)
 .text.PowerSetState
                0x00056d98       0x2d ..\mesh_common\mesh\libraries\CSR102x_A05\libpower_client.a(power_client.o)
                0x00056d98                PowerSetState
 .text.PowerModelClientInit
                0x00056dc5       0x13 ..\mesh_common\mesh\libraries\CSR102x_A05\libpower_client.a(power_client.o)
                0x00056dc5                PowerModelClientInit
 .text.SwitchModelInit
                0x00056dd8       0x1e ..\mesh_common\mesh\libraries\CSR102x_A05\libswitch_server.a(switch_model.o)
                0x00056dd8                SwitchModelInit
 .text.ExtensionModelInit
                0x00056df6       0x1a ..\mesh_common\mesh\libraries\CSR102x_A05\libextension_server.a(extension_model.o)
                0x00056df6                ExtensionModelInit
 .text.extensionModelServerHandler
                0x00056e10       0xaa ..\mesh_common\mesh\libraries\CSR102x_A05\libextension_server.a(extension_model.o)
 .text.ExtensionServerSetupOpcodeList
                0x00056eba        0x7 ..\mesh_common\mesh\libraries\CSR102x_A05\libextension_server.a(extension_server_exception.o)
                0x00056eba                ExtensionServerSetupOpcodeList
 .text.ExtensionVerifyOpcodeConflictWithMesh
                0x00056ec1       0x36 ..\mesh_common\mesh\libraries\CSR102x_A05\libextension_server.a(extension_server_exception.o)
                0x00056ec1                ExtensionVerifyOpcodeConflictWithMesh
 .text.___libextension_server_470
                0x00056ef7       0x2e ..\mesh_common\mesh\libraries\CSR102x_A05\libextension_server.a(extension_server_exception.o)
                0x00056ef7                ___libextension_server_470
 .text.extensionModelClientHandler
                0x00056f25       0x55 ..\mesh_common\mesh\libraries\CSR102x_A05\libextension_client.a(extension_client.o)
 .text.ExtensionModelClientInit
                0x00056f7a       0x13 ..\mesh_common\mesh\libraries\CSR102x_A05\libextension_client.a(extension_client.o)
                0x00056f7a                ExtensionModelClientInit
 .text.ExtensionClientSetupOpcodeList
                0x00056f8d        0x7 ..\mesh_common\mesh\libraries\CSR102x_A05\libextension_client.a(extension_client_exception.o)
                0x00056f8d                ExtensionClientSetupOpcodeList
 .text.ExtensionSendMessage
                0x00056f94       0x4f ..\mesh_common\mesh\libraries\CSR102x_A05\libextension_client.a(extension_client_exception.o)
                0x00056f94                ExtensionSendMessage
 .text.timeModelClientHandler
                0x00056fe3       0x74 ..\mesh_common\mesh\libraries\CSR102x_A05\libtime_client.a(time_client.o)
 .text.TimeModelClientInit
                0x00057057       0x13 ..\mesh_common\mesh\libraries\CSR102x_A05\libtime_client.a(time_client.o)
                0x00057057                TimeModelClientInit
 .text.TimeModelInit
                0x0005706a       0x1a ..\mesh_common\mesh\libraries\CSR102x_A05\libtime_server.a(time_model.o)
                0x0005706a                TimeModelInit
 .text.timeModelServerHandler
                0x00057084       0xa7 ..\mesh_common\mesh\libraries\CSR102x_A05\libtime_server.a(time_model.o)
 .text.TimeBroadcast
                0x0005712b       0x2d ..\mesh_common\mesh\libraries\CSR102x_A05\libtime_server.a(time_server_exception.o)
                0x0005712b                TimeBroadcast
 .text.ActionModelInit
                0x00057158       0x1a ..\mesh_common\mesh\libraries\CSR102x_A05\libaction_server.a(action_model.o)
                0x00057158                ActionModelInit
 .text.actionModelServerHandler
                0x00057172      0x166 ..\mesh_common\mesh\libraries\CSR102x_A05\libaction_server.a(action_model.o)
 .text.ActionSetAction
                0x000572d8      0x146 ..\mesh_common\mesh\libraries\CSR102x_A05\libaction_server.a(action_server_exception.o)
                0x000572d8                ActionSetAction
 .text.___libaction_server_473
                0x0005741e       0x40 ..\mesh_common\mesh\libraries\CSR102x_A05\libaction_server.a(action_server_exception.o)
                0x0005741e                ___libaction_server_473
 .text.ActionSendMessage
                0x0005745e       0x12 ..\mesh_common\mesh\libraries\CSR102x_A05\libaction_server.a(action_server_exception.o)
                0x0005745e                ActionSendMessage
 .text.WatchdogMessage
                0x00057470       0x2f ..\mesh_common\mesh\libraries\CSR102x_A05\libwatchdog_server.a(watchdog_model.o)
                0x00057470                WatchdogMessage
 .text.WatchdogModelInit
                0x0005749f       0x1a ..\mesh_common\mesh\libraries\CSR102x_A05\libwatchdog_server.a(watchdog_model.o)
                0x0005749f                WatchdogModelInit
 .text.watchdogModelServerHandler
                0x000574b9       0xe9 ..\mesh_common\mesh\libraries\CSR102x_A05\libwatchdog_server.a(watchdog_model.o)
 .text.PingModelInit
                0x000575a2       0x1a ..\mesh_common\mesh\libraries\CSR102x_A05\libping_server.a(ping_model.o)
                0x000575a2                PingModelInit
 .text.pingModelServerHandler
                0x000575bc       0x3c ..\mesh_common\mesh\libraries\CSR102x_A05\libping_server.a(ping_model.o)
 .text.___libping_server_468
                0x000575f8       0x68 ..\mesh_common\mesh\libraries\CSR102x_A05\libping_server.a(ping_server_exception.o)
                0x000575f8                ___libping_server_468
 .text.AttentionModelInit
                0x00057660       0x1a ..\mesh_common\mesh\libraries\CSR102x_A05\libattention_server.a(attention_model.o)
                0x00057660                AttentionModelInit
 .text.attentionModelServerHandler
                0x0005767a       0x84 ..\mesh_common\mesh\libraries\CSR102x_A05\libattention_server.a(attention_model.o)
 .text.DataModelInit
                0x000576fe       0x1a ..\mesh_common\mesh\libraries\CSR102x_A05\libdata_server.a(data_model.o)
                0x000576fe                DataModelInit
 .text.dataModelServerHandler
                0x00057718       0xc9 ..\mesh_common\mesh\libraries\CSR102x_A05\libdata_server.a(data_model.o)
 .text.dataModelClientHandler
                0x000577e1       0x3d ..\mesh_common\mesh\libraries\CSR102x_A05\libdata_client.a(data_client.o)
 .text.DataStreamSend
                0x0005781e       0x35 ..\mesh_common\mesh\libraries\CSR102x_A05\libdata_client.a(data_client.o)
                0x0005781e                DataStreamSend
 .text.DataStreamFlush
                0x00057853       0x1e ..\mesh_common\mesh\libraries\CSR102x_A05\libdata_client.a(data_client.o)
                0x00057853                DataStreamFlush
 .text.DataModelClientInit
                0x00057871       0x13 ..\mesh_common\mesh\libraries\CSR102x_A05\libdata_client.a(data_client.o)
                0x00057871                DataModelClientInit
 .text.BatteryState
                0x00057884       0x27 ..\mesh_common\mesh\libraries\CSR102x_A05\libbattery_server.a(battery_model.o)
                0x00057884                BatteryState
 .text.BatteryModelInit
                0x000578ab       0x1a ..\mesh_common\mesh\libraries\CSR102x_A05\libbattery_server.a(battery_model.o)
                0x000578ab                BatteryModelInit
 .text.batteryModelServerHandler
                0x000578c5       0x68 ..\mesh_common\mesh\libraries\CSR102x_A05\libbattery_server.a(battery_model.o)
 .text.LargeObjectTransferModelInit
                0x0005792d       0x1a ..\mesh_common\mesh\libraries\CSR102x_A05\liblargeobjecttransfer_server.a(largeobjecttransfer_model.o)
                0x0005792d                LargeObjectTransferModelInit
 .text.largeobjecttransferModelServerHandler
                0x00057947       0x3b ..\mesh_common\mesh\libraries\CSR102x_A05\liblargeobjecttransfer_server.a(largeobjecttransfer_model.o)
 .text.___liblargeobjecttransfer_server_468
                0x00057982       0x72 ..\mesh_common\mesh\libraries\CSR102x_A05\liblargeobjecttransfer_server.a(largeobjecttransfer_server_exception.o)
                0x00057982                ___liblargeobjecttransfer_server_468
 .text.LsSetMoreDataBit
                0x000579f4        0xd D:\CSR102x_SDK-3.1.1\tools\lib\CSR102x_A05\libgatt_lib_ram.a(patch_ls.o)
                0x000579f4                LsSetMoreDataBit
 .text.patch_ls_read_remote_used_features
                0x00057a01       0x33 D:\CSR102x_SDK-3.1.1\tools\lib\CSR102x_A05\libgatt_lib_ram.a(patch_ls.o)
 .text.LsConnectionUpdateSignallingRsp
                0x00057a34       0x43 D:\CSR102x_SDK-3.1.1\tools\lib\CSR102x_A05\libgatt_lib_ram.a(patch_ls.o)
                0x00057a34                LsConnectionUpdateSignallingRsp
 .text.LsReadRssi
                0x00057a77       0x1f D:\CSR102x_SDK-3.1.1\tools\lib\CSR102x_A05\libgatt_lib_ram.a(patch_ls.o)
                0x00057a77                LsReadRssi
 .text.___libgatt_lib_db_5454
                0x00057a96       0x56 D:\CSR102x_SDK-3.1.1\tools\lib\CSR102x_A05\libgatt_lib_ram.a(patch_ls.o)
                0x00057a96                ___libgatt_lib_db_5454
 .text.GattAccessRsp
                0x00057aec        0xf D:\CSR102x_SDK-3.1.1\tools\lib\CSR102x_A05\libgatt_lib_ram.a(patch_gatt_api.o)
                0x00057aec                GattAccessRsp
 .text.___libgatt_lib_db_5510
                0x00057afb       0x11 D:\CSR102x_SDK-3.1.1\tools\lib\CSR102x_A05\libgatt_lib_ram.a(patch_george_rx.o)
                0x00057afb                ___libgatt_lib_db_5510
 .text.___libgatt_lib_db_5508
                0x00057b0c       0x16 D:\CSR102x_SDK-3.1.1\tools\lib\CSR102x_A05\libgatt_lib_ram.a(patch_george_rx.o)
                0x00057b0c                ___libgatt_lib_db_5508
 .text.___libgatt_lib_db_5509
                0x00057b22       0xbf D:\CSR102x_SDK-3.1.1\tools\lib\CSR102x_A05\libgatt_lib_ram.a(patch_george_rx.o)
                0x00057b22                ___libgatt_lib_db_5509
 .text.___libgatt_lib_db_5516
                0x00057be1       0x93 D:\CSR102x_SDK-3.1.1\tools\lib\CSR102x_A05\libgatt_lib_ram.a(patch_george_rssi.o)
                0x00057be1                ___libgatt_lib_db_5516
 .text.___libgatt_lib_db_5517
                0x00057c74       0x2f D:\CSR102x_SDK-3.1.1\tools\lib\CSR102x_A05\libgatt_lib_ram.a(patch_george_rssi.o)
                0x00057c74                ___libgatt_lib_db_5517
 .text.patch_smem_full_erase
                0x00057ca3        0xa D:\CSR102x_SDK-3.1.1\tools\lib\CSR102x_A05\libgatt_lib_ram.a(patch_reset.o)
 .text.___libgatt_lib_db_5540
                0x00057cad       0x41 D:\CSR102x_SDK-3.1.1\tools\lib\CSR102x_A05\libgatt_lib_ram.a(patch_reset.o)
                0x00057cad                ___libgatt_lib_db_5540
 .text.___libgatt_lib_db_1669
                0x00057cee      0x1bb D:\CSR102x_SDK-3.1.1\tools\lib\CSR102x_A05\libgatt_lib_ram.a(patch_reset.o)
                0x00057cee                ___libgatt_lib_db_1669
 .text.patch_sysop_sleep_wake_event
                0x00057ea9       0x1c D:\CSR102x_SDK-3.1.1\tools\lib\CSR102x_A05\libgatt_lib_ram.a(patch_reset.o)
 .text.___libgatt_lib_db_5549
                0x00057ec5       0x10 D:\CSR102x_SDK-3.1.1\tools\lib\CSR102x_A05\libgatt_lib_ram.a(sw_patch_ram.o)
                0x00057ec5                ___libgatt_lib_db_5549
 .text.___libgatt_lib_db_5548
                0x00057ed5       0x10 D:\CSR102x_SDK-3.1.1\tools\lib\CSR102x_A05\libgatt_lib_ram.a(sw_patch_ram.o)
                0x00057ed5                ___libgatt_lib_db_5548
 .text.___libgatt_lib_db_1872
                0x00057ee5       0x40 D:\CSR102x_SDK-3.1.1\tools\lib\CSR102x_A05\libgatt_lib_ram.a(sw_patch_ram.o)
                0x00057ee5                ___libgatt_lib_db_1872
 .text.___libgatt_lib_db_5558
                0x00057f25       0x16 D:\CSR102x_SDK-3.1.1\tools\lib\CSR102x_A05\libgatt_lib_ram.a(patch_storage_api.o)
                0x00057f25                ___libgatt_lib_db_5558
 .text.Storage_GetStoreInfo
                0x00057f3b       0x2b D:\CSR102x_SDK-3.1.1\tools\lib\CSR102x_A05\libgatt_lib_ram.a(patch_storage_api.o)
                0x00057f3b                Storage_GetStoreInfo
 .text.Storage_FindStore
                0x00057f66       0x58 D:\CSR102x_SDK-3.1.1\tools\lib\CSR102x_A05\libgatt_lib_ram.a(patch_storage_api.o)
                0x00057f66                Storage_FindStore
 .text.ConfigStoreReadDeviceKey
                0x00057fbe       0x17 D:\CSR102x_SDK-3.1.1\tools\lib\CSR102x_A05\libgatt_lib_ram.a(configstore_api.o)
                0x00057fbe                ConfigStoreReadDeviceKey
 .text.ConfigStoreReadKey
                0x00057fd5        0x5 D:\CSR102x_SDK-3.1.1\tools\lib\CSR102x_A05\libgatt_lib_ram.a(configstore_api.o)
                0x00057fd5                ConfigStoreReadKey
 .text.___libgatt_lib_db_5559
                0x00057fda       0xb0 D:\CSR102x_SDK-3.1.1\tools\lib\CSR102x_A05\libgatt_lib_ram.a(patch_configstore.o)
                0x00057fda                ___libgatt_lib_db_5559
 .text.Userstore_Write
                0x0005808a       0x21 D:\CSR102x_SDK-3.1.1\tools\lib\CSR102x_A05\libgatt_lib_ram.a(userstore_api.o)
                0x0005808a                Userstore_Write
 .text.Userstore_Read
                0x000580ab       0x21 D:\CSR102x_SDK-3.1.1\tools\lib\CSR102x_A05\libgatt_lib_ram.a(userstore_api.o)
                0x000580ab                Userstore_Read
 .text.Userstore_Create
                0x000580cc       0x19 D:\CSR102x_SDK-3.1.1\tools\lib\CSR102x_A05\libgatt_lib_ram.a(userstore_api.o)
                0x000580cc                Userstore_Create
 .text.Userstore_Open
                0x000580e5       0x12 D:\CSR102x_SDK-3.1.1\tools\lib\CSR102x_A05\libgatt_lib_ram.a(userstore_api.o)
                0x000580e5                Userstore_Open
 .text.timer1_event_handler
                0x000580f7        0x9 D:\CSR102x_SDK-3.1.1\tools\lib\CSR102x_A05\libgatt_lib_ram.a(patch_sysop_fht.o)
 .text.___libgatt_lib_db_5561
                0x00058100       0xb4 D:\CSR102x_SDK-3.1.1\tools\lib\CSR102x_A05\libgatt_lib_ram.a(patch_sysop_fht.o)
                0x00058100                ___libgatt_lib_db_5561
 .text.___libgatt_lib_db_5567
                0x000581b4        0xb D:\CSR102x_SDK-3.1.1\tools\lib\CSR102x_A05\libgatt_lib_ram.a(patch_uci_carlos_map.o)
                0x000581b4                ___libgatt_lib_db_5567
 .text.___libgatt_lib_db_5566
                0x000581bf       0x12 D:\CSR102x_SDK-3.1.1\tools\lib\CSR102x_A05\libgatt_lib_ram.a(patch_uci_carlos_map.o)
                0x000581bf                ___libgatt_lib_db_5566
 .text.___libgatt_lib_db_5571
                0x000581d1        0xa D:\CSR102x_SDK-3.1.1\tools\lib\CSR102x_A05\libgatt_lib_ram.a(patch_uci_uart_h4.o)
                0x000581d1                ___libgatt_lib_db_5571
 .text.___libgatt_lib_db_5572
                0x000581db       0x84 D:\CSR102x_SDK-3.1.1\tools\lib\CSR102x_A05\libgatt_lib_ram.a(patch_uci_uart_h4.o)
                0x000581db                ___libgatt_lib_db_5572
 .text.StoreUpdate_RunAppOnce
                0x0005825f        0x3 D:\CSR102x_SDK-3.1.1\tools\lib\CSR102x_A05\libgatt_lib_ram.a(patch_store_update_api.o)
                0x0005825f                StoreUpdate_RunAppOnce
 .text.StoreUpdate_GetAppId
                0x00058262       0x18 D:\CSR102x_SDK-3.1.1\tools\lib\CSR102x_A05\libgatt_lib_ram.a(patch_store_update_api.o)
                0x00058262                StoreUpdate_GetAppId
 .text.StoreUpdate_HashStore
                0x0005827a       0x35 D:\CSR102x_SDK-3.1.1\tools\lib\CSR102x_A05\libgatt_lib_ram.a(patch_store_update_api.o)
                0x0005827a                StoreUpdate_HashStore
 .text.appstore_size_in_words
                0x000582af       0x23 D:\CSR102x_SDK-3.1.1\tools\lib\CSR102x_A05\libgatt_lib_ram.a(patch_store_update_api.o)
 .text.wrap_sha256_getstate
                0x000582d2       0x16 D:\CSR102x_SDK-3.1.1\tools\lib\CSR102x_A05\libgatt_lib_ram.a(patch_store_update_api.o)
 .text.sha256_read_fix
                0x000582e8       0x62 D:\CSR102x_SDK-3.1.1\tools\lib\CSR102x_A05\libgatt_lib_ram.a(patch_store_update_api.o)
 .text.calculate_hash
                0x0005834a       0x95 D:\CSR102x_SDK-3.1.1\tools\lib\CSR102x_A05\libgatt_lib_ram.a(patch_store_update_api.o)
 .text.___libgatt_lib_db_5577
                0x000583df       0x7d D:\CSR102x_SDK-3.1.1\tools\lib\CSR102x_A05\libgatt_lib_ram.a(patch_store_update_api.o)
                0x000583df                ___libgatt_lib_db_5577
 .text.wrap_sha256_read
                0x0005845c       0x47 D:\CSR102x_SDK-3.1.1\tools\lib\CSR102x_A05\libgatt_lib_ram.a(patch_store_update_api.o)
 .text.___libgatt_lib_db_5584
                0x000584a3        0xc D:\CSR102x_SDK-3.1.1\tools\lib\CSR102x_A05\libgatt_lib_ram.a(patch_rand.o)
                0x000584a3                ___libgatt_lib_db_5584
 .text.___libgatt_lib_db_5583
                0x000584af       0x62 D:\CSR102x_SDK-3.1.1\tools\lib\CSR102x_A05\libgatt_lib_ram.a(patch_rand.o)
                0x000584af                ___libgatt_lib_db_5583
 .text.___libgatt_lib_db_5582
                0x00058511       0x17 D:\CSR102x_SDK-3.1.1\tools\lib\CSR102x_A05\libgatt_lib_ram.a(patch_rand.o)
                0x00058511                ___libgatt_lib_db_5582
 .text.edge_capture_sleep_config
                0x00058528       0x20 D:\CSR102x_SDK-3.1.1\tools\lib\CSR102x_A05\libgatt_lib_ram.a(patch_edge_capture.o)
 .text.___libgatt_lib_db_5589
                0x00058548       0x1f D:\CSR102x_SDK-3.1.1\tools\lib\CSR102x_A05\libgatt_lib_ram.a(patch_edge_capture.o)
                0x00058548                ___libgatt_lib_db_5589
 .text.___libgatt_lib_db_5590
                0x00058567       0x23 D:\CSR102x_SDK-3.1.1\tools\lib\CSR102x_A05\libgatt_lib_ram.a(patch_edge_capture.o)
                0x00058567                ___libgatt_lib_db_5590
 .text.___libgatt_lib_db_5594
                0x0005858a       0x22 D:\CSR102x_SDK-3.1.1\tools\lib\CSR102x_A05\libgatt_lib_ram.a(patch_uart.o)
                0x0005858a                ___libgatt_lib_db_5594
 .text.___libgatt_lib_db_5595
                0x000585ac       0x42 D:\CSR102x_SDK-3.1.1\tools\lib\CSR102x_A05\libgatt_lib_ram.a(patch_uart.o)
                0x000585ac                ___libgatt_lib_db_5595
 .text.___libgatt_lib_db_5601
                0x000585ee        0x9 D:\CSR102x_SDK-3.1.1\tools\lib\CSR102x_A05\libgatt_lib_ram.a(patch_keyscan.o)
                0x000585ee                ___libgatt_lib_db_5601
 .text.___libgatt_lib_db_5599
                0x000585f7       0x11 D:\CSR102x_SDK-3.1.1\tools\lib\CSR102x_A05\libgatt_lib_ram.a(patch_keyscan.o)
                0x000585f7                ___libgatt_lib_db_5599
 .text.___libgatt_lib_db_5600
                0x00058608        0xf D:\CSR102x_SDK-3.1.1\tools\lib\CSR102x_A05\libgatt_lib_ram.a(patch_keyscan.o)
                0x00058608                ___libgatt_lib_db_5600
 .text.patch_keyscan_callback
                0x00058617       0x1e D:\CSR102x_SDK-3.1.1\tools\lib\CSR102x_A05\libgatt_lib_ram.a(patch_keyscan.o)
 .text.___libgatt_lib_db_5605
                0x00058635       0x1e D:\CSR102x_SDK-3.1.1\tools\lib\CSR102x_A05\libgatt_lib_ram.a(patch_ir.o)
                0x00058635                ___libgatt_lib_db_5605
 .text.patch_appir_event
                0x00058653       0xf8 D:\CSR102x_SDK-3.1.1\tools\lib\CSR102x_A05\libgatt_lib_ram.a(patch_ir.o)
 .text.___libgatt_lib_db_5607
                0x0005874b       0x13 D:\CSR102x_SDK-3.1.1\tools\lib\CSR102x_A05\libgatt_lib_ram.a(patch_sysop_clock_fht.o)
                0x0005874b                ___libgatt_lib_db_5607
 .text.___libgatt_lib_db_5609
                0x0005875e       0x3c D:\CSR102x_SDK-3.1.1\tools\lib\CSR102x_A05\libgatt_lib_ram.a(patch_sysop_sleep.o)
                0x0005875e                ___libgatt_lib_db_5609
 .text.shutdown_otp_and_smem
                0x0005879a       0x21 D:\CSR102x_SDK-3.1.1\tools\lib\CSR102x_A05\libgatt_lib_ram.a(patch_sysop_sleep.o)
 .text.___libgatt_lib_db_5611
                0x000587bb       0x24 D:\CSR102x_SDK-3.1.1\tools\lib\CSR102x_A05\libgatt_lib_ram.a(patch_adc.o)
                0x000587bb                ___libgatt_lib_db_5611
 .text.smem_volatile_enable_block_protection
                0x000587df       0x24 D:\CSR102x_SDK-3.1.1\tools\lib\CSR102x_A05\libgatt_lib_ram.a(patch_smem.o)
 .text.smem_verify
                0x00058803       0x61 D:\CSR102x_SDK-3.1.1\tools\lib\CSR102x_A05\libgatt_lib_ram.a(patch_smem.o)
 .text.copy_fn_to_ram
                0x00058864       0x2b D:\CSR102x_SDK-3.1.1\tools\lib\CSR102x_A05\libgatt_lib_ram.a(patch_smem.o)
 .text.___libgatt_lib_db_5618
                0x0005888f       0x41 D:\CSR102x_SDK-3.1.1\tools\lib\CSR102x_A05\libgatt_lib_ram.a(patch_smem.o)
                0x0005888f                ___libgatt_lib_db_5618
 .text.___libgatt_lib_db_5613
                0x000588d0       0x13 D:\CSR102x_SDK-3.1.1\tools\lib\CSR102x_A05\libgatt_lib_ram.a(patch_smem.o)
                0x000588d0                ___libgatt_lib_db_5613
 .text.___libgatt_lib_db_5614
                0x000588e3       0x66 D:\CSR102x_SDK-3.1.1\tools\lib\CSR102x_A05\libgatt_lib_ram.a(patch_smem.o)
                0x000588e3                ___libgatt_lib_db_5614
 .text.___libgatt_lib_db_5620
                0x00058949       0x6f D:\CSR102x_SDK-3.1.1\tools\lib\CSR102x_A05\libgatt_lib_ram.a(patch_bleinit.o)
                0x00058949                ___libgatt_lib_db_5620
 .text.___libgatt_lib_db_5619
                0x000589b8       0xea D:\CSR102x_SDK-3.1.1\tools\lib\CSR102x_A05\libgatt_lib_ram.a(patch_bleinit.o)
                0x000589b8                ___libgatt_lib_db_5619
 .text.___libgatt_lib_db_5627
                0x00058aa2       0x18 D:\CSR102x_SDK-3.1.1\tools\lib\CSR102x_A05\libgatt_lib_ram.a(patch_bletx.o)
                0x00058aa2                ___libgatt_lib_db_5627
 .text.___libgatt_lib_db_5623
                0x00058aba       0x2e D:\CSR102x_SDK-3.1.1\tools\lib\CSR102x_A05\libgatt_lib_ram.a(patch_bletx.o)
                0x00058aba                ___libgatt_lib_db_5623
 .text.___libgatt_lib_db_5626
                0x00058ae8       0x1a D:\CSR102x_SDK-3.1.1\tools\lib\CSR102x_A05\libgatt_lib_ram.a(patch_bletx.o)
                0x00058ae8                ___libgatt_lib_db_5626
 .text.___libgatt_lib_db_5634
                0x00058b02       0x4b D:\CSR102x_SDK-3.1.1\tools\lib\CSR102x_A05\libgatt_lib_ram.a(patch_bletx.o)
                0x00058b02                ___libgatt_lib_db_5634
 .text.___libgatt_lib_db_5624
                0x00058b4d       0x9f D:\CSR102x_SDK-3.1.1\tools\lib\CSR102x_A05\libgatt_lib_ram.a(patch_bletx.o)
                0x00058b4d                ___libgatt_lib_db_5624
 .text.___libgatt_lib_db_5625
                0x00058bec      0x155 D:\CSR102x_SDK-3.1.1\tools\lib\CSR102x_A05\libgatt_lib_ram.a(patch_bletx.o)
                0x00058bec                ___libgatt_lib_db_5625
 .text.___libgatt_lib_db_5635
                0x00058d41       0x29 D:\CSR102x_SDK-3.1.1\tools\lib\CSR102x_A05\libgatt_lib_ram.a(patch_blerx.o)
                0x00058d41                ___libgatt_lib_db_5635
 .text.___libgatt_lib_db_5637
                0x00058d6a        0xb D:\CSR102x_SDK-3.1.1\tools\lib\CSR102x_A05\libgatt_lib_ram.a(patch_blelo.o)
                0x00058d6a                ___libgatt_lib_db_5637
 .text.___libgatt_lib_db_5638
                0x00058d75       0x32 D:\CSR102x_SDK-3.1.1\tools\lib\CSR102x_A05\libgatt_lib_ram.a(patch_blelo.o)
                0x00058d75                ___libgatt_lib_db_5638
 .text.___libgatt_lib_db_5639
                0x00058da7       0x4f D:\CSR102x_SDK-3.1.1\tools\lib\CSR102x_A05\libgatt_lib_ram.a(patch_blelo.o)
                0x00058da7                ___libgatt_lib_db_5639
 .text.___libgatt_lib_db_5641
                0x00058df6       0x63 D:\CSR102x_SDK-3.1.1\tools\lib\CSR102x_A05\libgatt_lib_ram.a(patch_blelo.o)
                0x00058df6                ___libgatt_lib_db_5641
 .text.___libgatt_lib_db_5640
                0x00058e59       0x1e D:\CSR102x_SDK-3.1.1\tools\lib\CSR102x_A05\libgatt_lib_ram.a(patch_blelo.o)
                0x00058e59                ___libgatt_lib_db_5640
 .text.___libgatt_lib_db_5647
                0x00058e77       0x22 D:\CSR102x_SDK-3.1.1\tools\lib\CSR102x_A05\libgatt_lib_ram.a(patch_hal_bleradio.o)
                0x00058e77                ___libgatt_lib_db_5647
 .text.___libgatt_lib_db_5648
                0x00058e99       0x1f D:\CSR102x_SDK-3.1.1\tools\lib\CSR102x_A05\libgatt_lib_ram.a(patch_hal_bleradio.o)
                0x00058e99                ___libgatt_lib_db_5648
 .text.___libgatt_lib_db_5649
                0x00058eb8       0x1a D:\CSR102x_SDK-3.1.1\tools\lib\CSR102x_A05\libgatt_lib_ram.a(patch_hal_bleradio.o)
                0x00058eb8                ___libgatt_lib_db_5649
 .text.patch_get_state
                0x00058ed2       0x1d D:\CSR102x_SDK-3.1.1\tools\lib\CSR102x_A05\libgatt_lib_ram.a(patch_hal_bleradio.o)
 .text.bleradio_dac_cal_skip_ico_ampli
                0x00058eef        0xc D:\CSR102x_SDK-3.1.1\tools\lib\CSR102x_A05\libgatt_lib_ram.a(patch_hal_bleradio.o)
 .text.patch_set_state
                0x00058efb      0x1ba D:\CSR102x_SDK-3.1.1\tools\lib\CSR102x_A05\libgatt_lib_ram.a(patch_hal_bleradio.o)
 .text.patch_set_config
                0x000590b5       0x42 D:\CSR102x_SDK-3.1.1\tools\lib\CSR102x_A05\libgatt_lib_ram.a(patch_hal_bleradio.o)
 .text.___libgatt_lib_db_5653
                0x000590f7       0x11 D:\CSR102x_SDK-3.1.1\tools\lib\CSR102x_A05\libgatt_lib_ram.a(patch_sched.o)
                0x000590f7                ___libgatt_lib_db_5653
 .text.___libgatt_lib_db_5656
                0x00059108       0x1e D:\CSR102x_SDK-3.1.1\tools\lib\CSR102x_A05\libgatt_lib_ram.a(patch_sched.o)
                0x00059108                ___libgatt_lib_db_5656
 .text.patch_george_tx_task
                0x00059126       0xd9 D:\CSR102x_SDK-3.1.1\tools\lib\CSR102x_A05\libgatt_lib_ram.a(patch_sched.o)
 .text.patch_sysop_task
                0x000591ff       0x23 D:\CSR102x_SDK-3.1.1\tools\lib\CSR102x_A05\libgatt_lib_ram.a(patch_sched.o)
 .text.___libgatt_lib_db_5658
                0x00059222       0x12 D:\CSR102x_SDK-3.1.1\tools\lib\CSR102x_A05\libgatt_lib_ram.a(patch_bg_int.o)
                0x00059222                ___libgatt_lib_db_5658
 .text.___libgatt_lib_db_5657
                0x00059234        0xc D:\CSR102x_SDK-3.1.1\tools\lib\CSR102x_A05\libgatt_lib_ram.a(patch_bg_int.o)
                0x00059234                ___libgatt_lib_db_5657
 .text.bg_int_carlos_run_swirq_handler
                0x00059240       0x27 D:\CSR102x_SDK-3.1.1\tools\lib\CSR102x_A05\libgatt_lib_ram.a(patch_bg_int.o)
 .text.___libgatt_lib_db_5661
                0x00059267       0x12 D:\CSR102x_SDK-3.1.1\tools\lib\CSR102x_A05\libgatt_lib_ram.a(patch_crypt_utils.o)
                0x00059267                ___libgatt_lib_db_5661
 .text.___libgatt_lib_db_5662
                0x00059279        0xe D:\CSR102x_SDK-3.1.1\tools\lib\CSR102x_A05\libgatt_lib_ram.a(patch_crypt_utils.o)
                0x00059279                ___libgatt_lib_db_5662
 .text.___libgatt_lib_db_5663
                0x00059287       0x1e D:\CSR102x_SDK-3.1.1\tools\lib\CSR102x_A05\libgatt_lib_ram.a(patch_crypt_utils.o)
                0x00059287                ___libgatt_lib_db_5663
 .text.___libgatt_lib_db_5452
                0x000592a5       0x51 D:\CSR102x_SDK-3.1.1\tools\lib\CSR102x_A05\libgatt_lib_ram.a(patch_ls_hci_if.o)
                0x000592a5                ___libgatt_lib_db_5452
 .text.___libgatt_lib_db_5458
                0x000592f6       0x1c D:\CSR102x_SDK-3.1.1\tools\lib\CSR102x_A05\libgatt_lib_ram.a(patch_ls_app_if.o)
                0x000592f6                ___libgatt_lib_db_5458
 .text.___libgatt_lib_db_5461
                0x00059312       0x16 D:\CSR102x_SDK-3.1.1\tools\lib\CSR102x_A05\libgatt_lib_ram.a(patch_att.o)
                0x00059312                ___libgatt_lib_db_5461
 .text.___libgatt_lib_db_5460
                0x00059328       0x19 D:\CSR102x_SDK-3.1.1\tools\lib\CSR102x_A05\libgatt_lib_ram.a(patch_att.o)
                0x00059328                ___libgatt_lib_db_5460
 .text.___libgatt_lib_db_5465
                0x00059341        0x8 D:\CSR102x_SDK-3.1.1\tools\lib\CSR102x_A05\libgatt_lib_ram.a(patch_gatt_common.o)
                0x00059341                ___libgatt_lib_db_5465
 .text.___libgatt_lib_db_5467
                0x00059349       0x47 D:\CSR102x_SDK-3.1.1\tools\lib\CSR102x_A05\libgatt_lib_ram.a(patch_gatt_server_indications.o)
                0x00059349                ___libgatt_lib_db_5467
 .text.___libgatt_lib_db_5493
                0x00059390       0x1e D:\CSR102x_SDK-3.1.1\tools\lib\CSR102x_A05\libgatt_lib_ram.a(patch_i2c.o)
                0x00059390                ___libgatt_lib_db_5493
 .text.rx_fifo_read
                0x000593ae       0x40 D:\CSR102x_SDK-3.1.1\tools\lib\CSR102x_A05\libgatt_lib_ram.a(patch_i2c.o)
 .text.slave_setup_for_tx
                0x000593ee       0x50 D:\CSR102x_SDK-3.1.1\tools\lib\CSR102x_A05\libgatt_lib_ram.a(patch_i2c.o)
 .text.slave_setup_for_rx
                0x0005943e       0x23 D:\CSR102x_SDK-3.1.1\tools\lib\CSR102x_A05\libgatt_lib_ram.a(patch_i2c.o)
 .text.patch_appi2c_master_irq
                0x00059461       0x9d D:\CSR102x_SDK-3.1.1\tools\lib\CSR102x_A05\libgatt_lib_ram.a(patch_i2c.o)
 .text.patch_appi2c_slave_irq
                0x000594fe      0x1c0 D:\CSR102x_SDK-3.1.1\tools\lib\CSR102x_A05\libgatt_lib_ram.a(patch_i2c.o)
 .text.___libgatt_lib_db_5490
                0x000596be       0xb4 D:\CSR102x_SDK-3.1.1\tools\lib\CSR102x_A05\libgatt_lib_ram.a(patch_i2c.o)
                0x000596be                ___libgatt_lib_db_5490
 .text.___libgatt_lib_db_5492
                0x00059772       0x2e D:\CSR102x_SDK-3.1.1\tools\lib\CSR102x_A05\libgatt_lib_ram.a(patch_i2c.o)
                0x00059772                ___libgatt_lib_db_5492
 .text.___libgatt_lib_db_5498
                0x000597a0        0x8 D:\CSR102x_SDK-3.1.1\tools\lib\CSR102x_A05\libgatt_lib_ram.a(patch_lm.o)
                0x000597a0                ___libgatt_lib_db_5498
 .text.___libgatt_lib_db_5501
                0x000597a8       0x5c D:\CSR102x_SDK-3.1.1\tools\lib\CSR102x_A05\libgatt_lib_ram.a(patch_streams.o)
                0x000597a8                ___libgatt_lib_db_5501
 .text.___libgatt_lib_db_5500
                0x00059804        0x4 D:\CSR102x_SDK-3.1.1\tools\lib\CSR102x_A05\libgatt_lib_ram.a(patch_streams.o)
                0x00059804                ___libgatt_lib_db_5500
 .text.bt_timer_pte_lockup_timeout
                0x00059808        0x7 D:\CSR102x_SDK-3.1.1\tools\lib\CSR102x_A05\libgatt_lib_ram.a(patch_george.o)
 .text.___libgatt_lib_db_5504
                0x0005980f       0x44 D:\CSR102x_SDK-3.1.1\tools\lib\CSR102x_A05\libgatt_lib_ram.a(patch_george.o)
                0x0005980f                ___libgatt_lib_db_5504
 .text.___libgatt_lib_db_5505
                0x00059853       0x10 D:\CSR102x_SDK-3.1.1\tools\lib\CSR102x_A05\libgatt_lib_ram.a(patch_george.o)
                0x00059853                ___libgatt_lib_db_5505
 .text.increase_rx_window
                0x00059863       0x53 D:\CSR102x_SDK-3.1.1\tools\lib\CSR102x_A05\libgatt_lib_ram.a(patch_george_adv.o)
 .text.___libgatt_lib_db_5514
                0x000598b6       0xb4 D:\CSR102x_SDK-3.1.1\tools\lib\CSR102x_A05\libgatt_lib_ram.a(patch_george_adv.o)
                0x000598b6                ___libgatt_lib_db_5514
 .text.mblk_destroyed
                0x0005996a       0x1a D:\CSR102x_SDK-3.1.1\tools\lib\CSR102x_A05\libgatt_lib_ram.a(patch_george_reset.o)
 .text.mblk_destroyed_0
                0x00059984        0x2 D:\CSR102x_SDK-3.1.1\tools\lib\CSR102x_A05\libgatt_lib_ram.a(patch_george_reset.o)
 .text.mblk_destroyed_1
                0x00059986        0x2 D:\CSR102x_SDK-3.1.1\tools\lib\CSR102x_A05\libgatt_lib_ram.a(patch_george_reset.o)
 .text.mblk_destroyed_2
                0x00059988        0x2 D:\CSR102x_SDK-3.1.1\tools\lib\CSR102x_A05\libgatt_lib_ram.a(patch_george_reset.o)
 .text.mblk_destroyed_3
                0x0005998a        0x2 D:\CSR102x_SDK-3.1.1\tools\lib\CSR102x_A05\libgatt_lib_ram.a(patch_george_reset.o)
 .text.___libgatt_lib_db_5520
                0x0005998c       0x80 D:\CSR102x_SDK-3.1.1\tools\lib\CSR102x_A05\libgatt_lib_ram.a(patch_george_reset.o)
                0x0005998c                ___libgatt_lib_db_5520
 .text.___libgatt_lib_db_5525
                0x00059a0c       0x3c D:\CSR102x_SDK-3.1.1\tools\lib\CSR102x_A05\libgatt_lib_ram.a(patch_george_test.o)
                0x00059a0c                ___libgatt_lib_db_5525
 .text.___libgatt_lib_db_5526
                0x00059a48       0x10 D:\CSR102x_SDK-3.1.1\tools\lib\CSR102x_A05\libgatt_lib_ram.a(patch_george_test.o)
                0x00059a48                ___libgatt_lib_db_5526
 .text.___libgatt_lib_db_5524
                0x00059a58       0x11 D:\CSR102x_SDK-3.1.1\tools\lib\CSR102x_A05\libgatt_lib_ram.a(patch_george_test.o)
                0x00059a58                ___libgatt_lib_db_5524
 .text.patch_end_of_direct_test
                0x00059a69       0x2c D:\CSR102x_SDK-3.1.1\tools\lib\CSR102x_A05\libgatt_lib_ram.a(patch_george_test.o)
 .text.patch_end_of_direct_test_transmit
                0x00059a95       0x18 D:\CSR102x_SDK-3.1.1\tools\lib\CSR102x_A05\libgatt_lib_ram.a(patch_george_test.o)
 .text.patch_btle_rx_event
                0x00059aad       0x2c D:\CSR102x_SDK-3.1.1\tools\lib\CSR102x_A05\libgatt_lib_ram.a(patch_george_test.o)
 .text.___libgatt_lib_db_5530
                0x00059ad9        0xd D:\CSR102x_SDK-3.1.1\tools\lib\CSR102x_A05\libgatt_lib_ram.a(patch_george_updates.o)
                0x00059ad9                ___libgatt_lib_db_5530
 .text.___libgatt_lib_db_5532
                0x00059ae6       0x68 D:\CSR102x_SDK-3.1.1\tools\lib\CSR102x_A05\libgatt_lib_ram.a(patch_george_scheduler.o)
                0x00059ae6                ___libgatt_lib_db_5532
 .text.___libgatt_lib_db_5534
                0x00059b4e       0x17 D:\CSR102x_SDK-3.1.1\tools\lib\CSR102x_A05\libgatt_lib_ram.a(patch_george_ll.o)
                0x00059b4e                ___libgatt_lib_db_5534
 .text.___libgatt_lib_db_5536
                0x00059b65       0x73 D:\CSR102x_SDK-3.1.1\tools\lib\CSR102x_A05\libgatt_lib_ram.a(patch_george_interrupt.o)
                0x00059b65                ___libgatt_lib_db_5536
 .text.___libgatt_lib_db_5537
                0x00059bd8       0x50 D:\CSR102x_SDK-3.1.1\tools\lib\CSR102x_A05\libgatt_lib_ram.a(patch_george_interrupt.o)
                0x00059bd8                ___libgatt_lib_db_5537
 .text.___libgatt_lib_db_5543
                0x00059c28       0x12 D:\CSR102x_SDK-3.1.1\tools\lib\CSR102x_A05\libgatt_lib_ram.a(patch_main.o)
                0x00059c28                ___libgatt_lib_db_5543
 .text.___libgatt_lib_db_2093
                0x00059c3a       0x76 D:\CSR102x_SDK-3.1.1\tools\lib\CSR102x_A05\libgatt_lib_ram.a(app_proxy_init.o)
                0x00059c3a                ___libgatt_lib_db_2093
 .text.___libgatt_lib_db_1787
                0x00059cb0        0x5 D:\CSR102x_SDK-3.1.1\tools\lib\CSR102x_A05\libgatt_lib_ram.a(hw_patch_install.o)
                0x00059cb0                ___libgatt_lib_db_1787
 *(.apptext)
 *(.apptext.*)
                0x00059cb5                APPINFO_APPCODE_END = .
                0x00059cb8                . = ALIGN (0x8)
 *fill*         0x00059cb5        0x6 00
                0x00059cb8                PROG_APPCODE_SIGNATURE_START = .
                0x00059cb8                . = (. + APP_SIGNATURE_SIZE)
                0x00059cb8                PROG_APPCODE_SIGNATURE_END = .
                0x00059cb8                PROG_APPCODE_HASH_START = .
                0x00059cc8                . = (. + APP_HASH_SIZE)
 *fill*         0x00059cb8       0x20 00
                0x00059cc8                . = ALIGN (0x8)
                0x00059cc8                PROG_APPCODE_HASH_END = .

.appbss         0x000060f9      0xbeb
                0x000060f9                DATA_APPBSS_START = .
                0x000060f9                DATA_TIMER_START = .
 *(.bss.timer_data_section*)
 .bss.timer_data_section
                0x000060f9        0x2 depend_Release_CSR102x_A05\gaia_otau.o
                0x000060f9                __timer_data_commit_timeout
                0x000060fb                DATA_TIMER_END = .
 *(.bss)
 .bss           0x000060fb        0x1 D:\CSR102x_SDK-3.1.1\tools\lib\CSR102x_A05\libgatt_lib_ram.a(patch_sm_l2cap_if.o)
 *(.bss.*)
 .bss.local_data
                0x000060fc       0x14 depend_Release_CSR102x_A05\conn_param_update.o
 .bss.g_nvm_state
                0x00006110        0x1 depend_Release_CSR102x_A05\nvm_access.o
 .bss.g_nvm_fresh
                0x00006111        0x1 depend_Release_CSR102x_A05\nvm_access.o
 .bss.g_nvm_sanity
                0x00006112        0x1 depend_Release_CSR102x_A05\nvm_access.o
 .bss.g_nvm_offset
                0x00006113        0x1 depend_Release_CSR102x_A05\nvm_access.o
 .bss.g_store_id
                0x00006114        0x1 depend_Release_CSR102x_A05\nvm_access.o
 .bss.cm_notification_cfm
                0x00006115        0x3 depend_Release_CSR102x_A05\cm_hal.o
 .bss.notif_cfm_tid
                0x00006118        0x1 depend_Release_CSR102x_A05\cm_hal.o
 .bss.g_cm_main_data
                0x00006119        0x4 depend_Release_CSR102x_A05\cm_private.o
 .bss.g_security_data
                0x0000611d        0x3 depend_Release_CSR102x_A05\cm_security.o
 .bss.g_server_data
                0x00006120        0x3 depend_Release_CSR102x_A05\cm_server.o
 .bss.g_cm_observer_data
                0x00006123        0xd depend_Release_CSR102x_A05\cm_observer.o
 .bss.g_cm_peripheral_data
                0x00006130       0x4e depend_Release_CSR102x_A05\cm_peripheral.o
 .bss.pio_open  0x0000617e        0x1 depend_Release_CSR102x_A05\iot_hw.o
 .bss.pwm_ramp_red
                0x0000617f        0x1 depend_Release_CSR102x_A05\iot_hw.o
 .bss.pwm_ramp_green
                0x00006180        0x1 depend_Release_CSR102x_A05\iot_hw.o
 .bss.pwm_ramp_blue
                0x00006181        0x1 depend_Release_CSR102x_A05\iot_hw.o
 .bss.pio_msk_sw2
                0x00006182        0x3 depend_Release_CSR102x_A05\iot_hw.o
 .bss.pio_msk_sw3
                0x00006185        0x3 depend_Release_CSR102x_A05\iot_hw.o
 .bss.pio_msk_sw4
                0x00006188        0x3 depend_Release_CSR102x_A05\iot_hw.o
 .bss.sw2_mask_idx
                0x0000618b        0x1 depend_Release_CSR102x_A05\iot_hw.o
 .bss.sw3_mask_idx
                0x0000618c        0x1 depend_Release_CSR102x_A05\iot_hw.o
 .bss.sw4_mask_idx
                0x0000618d        0x1 depend_Release_CSR102x_A05\iot_hw.o
 .bss.attn_tid  0x0000618e        0x1 depend_Release_CSR102x_A05\attention_model_handler.o
 .bss.p_attn_model_hdlr_data
                0x0000618f        0x1 depend_Release_CSR102x_A05\attention_model_handler.o
 .bss.p_batt_model_hdlr_data
                0x00006190        0x1 depend_Release_CSR102x_A05\battery_model_handler.o
 .bss.assoc_attn_tid
                0x00006191        0x1 depend_Release_CSR102x_A05\core_mesh_handler.o
 .bss.remove_assoc_tid
                0x00006192        0x1 depend_Release_CSR102x_A05\core_mesh_handler.o
 .bss.p_mesh_hdlr_data
                0x00006193        0x1 depend_Release_CSR102x_A05\core_mesh_handler.o
 .bss.stream_send_retry_tid
                0x00006194        0x1 depend_Release_CSR102x_A05\data_model_handler.o
 .bss.tx_stream_offset
                0x00006195        0x1 depend_Release_CSR102x_A05\data_model_handler.o
 .bss.stream_send_retry_count
                0x00006196        0x1 depend_Release_CSR102x_A05\data_model_handler.o
 .bss.rx_stream_offset
                0x00006197        0x1 depend_Release_CSR102x_A05\data_model_handler.o
 .bss.rx_stream_in_progress
                0x00006198        0x1 depend_Release_CSR102x_A05\data_model_handler.o
 .bss.device_info
                0x00006199      0x100 depend_Release_CSR102x_A05\data_model_handler.o
 .bss.device_info_length
                0x00006299        0x1 depend_Release_CSR102x_A05\data_model_handler.o
 .bss.app_stream_state
                0x0000629a        0x7 depend_Release_CSR102x_A05\data_model_handler.o
 .bss.rx_stream_timeout_tid
                0x000062a1        0x1 depend_Release_CSR102x_A05\data_model_handler.o
 .bss.current_stream_code
                0x000062a2        0x1 depend_Release_CSR102x_A05\data_model_handler.o
 .bss.p_wdog_hdlr_data
                0x000062a3        0x1 depend_Release_CSR102x_A05\watchdog_model_handler.o
 .bss.rsp_wdog_msg
                0x000062a4        0xb depend_Release_CSR102x_A05\watchdog_model_handler.o
 .bss.unpackedData
                0x000062af       0x1f depend_Release_CSR102x_A05\connection_handler.o
 .bss.rx_ttl    0x000062ce        0x1 depend_Release_CSR102x_A05\connection_handler.o
 .bss.g_conn_info
                0x000062cf       0x10 depend_Release_CSR102x_A05\connection_handler.o
 .bss.g_bonded_devices
                0x000062df       0x2e depend_Release_CSR102x_A05\connection_handler.o
 .bss.g_server_info
                0x0000630d       0x10 depend_Release_CSR102x_A05\connection_handler.o
 .bss.gatt_data
                0x0000631d        0x7 depend_Release_CSR102x_A05\connection_handler.o
 .bss.gatt_event_data
                0x00006324        0x4 depend_Release_CSR102x_A05\connection_handler.o
 .bss.state     0x00006328        0x1 depend_Release_CSR102x_A05\connection_handler.o
 .bss.g_lot_advert_count
                0x00006329        0x1 depend_Release_CSR102x_A05\advertisement_handler.o
                0x00006329                g_lot_advert_count
 .bss.tick_timer_tid
                0x0000632a        0x1 depend_Release_CSR102x_A05\time_model_handler.o
 .bss.p_time_model_hdlr_data
                0x0000632b        0x1 depend_Release_CSR102x_A05\time_model_handler.o
 .bss.last_updated_tstamp
                0x0000632c        0x2 depend_Release_CSR102x_A05\time_model_handler.o
 .bss.g_time_state
                0x0000632e        0x1 depend_Release_CSR102x_A05\time_model_handler.o
 .bss.elapsed_ms
                0x0000632f        0x2 depend_Release_CSR102x_A05\time_model_handler.o
 .bss.broadcast_repeats
                0x00006331        0x1 depend_Release_CSR102x_A05\time_model_handler.o
 .bss.action_hdlr_priv_data
                0x00006332       0xb3 depend_Release_CSR102x_A05\action_model_handler.o
 .bss.action_model_rsp_data
                0x000063e5       0x16 depend_Release_CSR102x_A05\action_model_handler.o
 .bss.ext_hdlr_data
                0x000063fb       0x10 depend_Release_CSR102x_A05\extension_model_handler.o
 .bss.ext_model_rsp_data
                0x0000640b        0x8 depend_Release_CSR102x_A05\extension_model_handler.o
 .bss.g_lot_consumer_service_id
                0x00006413       0x10 depend_Release_CSR102x_A05\largeobjecttransfer_model_handler.o
 .bss.g_app_otau_data
                0x00006423        0xa depend_Release_CSR102x_A05\app_otau_handler.o
 .bss.g_service_data
                0x0000642d        0x2 depend_Release_CSR102x_A05\gap_service.o
 .bss.g_service_info
                0x0000642f        0x4 depend_Release_CSR102x_A05\gap_service.o
 .bss.g_device_name
                0x00006433       0x16 depend_Release_CSR102x_A05\gap_service.o
 .bss.g_service_data
                0x00006449        0x5 depend_Release_CSR102x_A05\gatt_service.o
 .bss.g_service_info
                0x0000644e        0x4 depend_Release_CSR102x_A05\gatt_service.o
 .bss.g_mesh_service_info
                0x00006452        0x4 depend_Release_CSR102x_A05\mesh_control_service.o
 .bss.g_gaia_lib_data
                0x00006456        0x6 depend_Release_CSR102x_A05\gaia.o
 .bss.g_otau_data
                0x0000645c       0x40 depend_Release_CSR102x_A05\gaia_otau.o
 .bss.g_gaia_service_info
                0x0000649c        0x4 depend_Release_CSR102x_A05\gaia_service.o
 .bss.g_gaia_data
                0x000064a0       0x1c depend_Release_CSR102x_A05\gaia_service.o
 .bss.app_timers
                0x000064bc       0x28 depend_Release_CSR102x_A05\main_app.o
 .bss.g_attention_handler_data
                0x000064e4        0x3 depend_Release_CSR102x_A05\app_mesh_handler.o
 .bss.g_battery_handler_data
                0x000064e7        0x3 depend_Release_CSR102x_A05\app_mesh_handler.o
 .bss.g_watchdog_handler_data
                0x000064ea        0x8 depend_Release_CSR102x_A05\app_mesh_handler.o
 .bss.g_time_handler_data
                0x000064f2        0x6 depend_Release_CSR102x_A05\app_mesh_handler.o
 .bss.oneSecTimerId
                0x000064f8        0x1 depend_Release_CSR102x_A05\app_hw.o
 .bss.incButtonState
                0x000064f9        0x1 depend_Release_CSR102x_A05\app_hw.o
 .bss.decButtonState
                0x000064fa        0x1 depend_Release_CSR102x_A05\app_hw.o
 .bss.onButtonState
                0x000064fb        0x1 depend_Release_CSR102x_A05\app_hw.o
 .bss.brightness_level
                0x000064fc        0x1 depend_Release_CSR102x_A05\app_hw.o
 .bss.sw3_mask  0x000064fd        0x3 depend_Release_CSR102x_A05\app_hw.o
 .bss.sw2_mask  0x00006500        0x3 depend_Release_CSR102x_A05\app_hw.o
 .bss.sw4_mask  0x00006503        0x3 depend_Release_CSR102x_A05\app_hw.o
 .bss.g_mtl_data
                0x00006506      0x16e ..\mesh_common\mesh\libraries\CSR102x_A05\libcsrmesh.a(csr_mesh_mtl.o)
 .bss.mtl_rx_buffer
                0x00006674       0x1f ..\mesh_common\mesh\libraries\CSR102x_A05\libcsrmesh.a(csr_mesh_mtl.o)
 .bss.mtl_operational_buffer_2
                0x00006693       0x10 ..\mesh_common\mesh\libraries\CSR102x_A05\libcsrmesh.a(csr_mesh_mtl.o)
 .bss.g_ec_stack
                0x000066a3      0x105 ..\mesh_common\mesh\libraries\CSR102x_A05\libcsrmesh.a(csr_mesh_ec_alloc.o)
 .bss.g_masp_data
                0x000067a8       0x52 ..\mesh_common\mesh\libraries\CSR102x_A05\libcsrmesh.a(csr_mesh_masp.o)
 .bss.g_mcp_data
                0x000067fa        0xe ..\mesh_common\mesh\libraries\CSR102x_A05\libcsrmesh.a(csr_mesh_mcp.o)
 .bss.sha256_hmac_priv_context
                0x00006808       0x62 ..\mesh_common\mesh\libraries\CSR102x_A05\libcsrmesh.a(csr_mesh_sha256_hmac.o)
 .bss.tx_mesg_queue
                0x0000686a        0x2 ..\mesh_common\mesh\libraries\CSR102x_A05\libcsrmesh.a(csr_mesh_bearer_porting_util.o)
 .bss.event_data.2820.
                0x0000686c       0x4e ..\mesh_common\mesh\libraries\CSR102x_A05\libcsrmesh.a(csr1010_scheduler.o)
 .bss.event_data.2535.
                0x000068ba       0x4e ..\mesh_common\mesh\libraries\CSR102x_A05\libcsrmesh.a(csr1010_scheduler.o)
 .bss.unpacked_tx_buffer
                0x00006908       0x1f ..\mesh_common\mesh\libraries\CSR102x_A05\libcsrmesh.a(csr1010_scheduler.o)
 .bss.g_scheduler_data
                0x00006927       0x74 ..\mesh_common\mesh\libraries\CSR102x_A05\libcsrmesh.a(csr1010_scheduler.o)
 .bss.msg_params.2791.
                0x0000699b        0x3 ..\mesh_common\mesh\libraries\CSR102x_A05\libcsrmesh.a(csr_mesh_config_model.o)
 .bss.selfSignature.2777.
                0x0000699e        0x8 ..\mesh_common\mesh\libraries\CSR102x_A05\libcsrmesh.a(csr_mesh_config_model.o)
 .bss.remoteSignature.2776.
                0x000069a6        0x8 ..\mesh_common\mesh\libraries\CSR102x_A05\libcsrmesh.a(csr_mesh_config_model.o)
 .bss.le_params.2762.
                0x000069ae        0xf ..\mesh_common\mesh\libraries\CSR102x_A05\libcsrmesh.a(csr_mesh_config_model.o)
 .bss.eventData.2761.
                0x000069bd        0x3 ..\mesh_common\mesh\libraries\CSR102x_A05\libcsrmesh.a(csr_mesh_config_model.o)
 .bss.config_param.2760.
                0x000069c0        0x5 ..\mesh_common\mesh\libraries\CSR102x_A05\libcsrmesh.a(csr_mesh_config_model.o)
 .bss.g_config_model_data
                0x000069c5        0x9 ..\mesh_common\mesh\libraries\CSR102x_A05\libcsrmesh.a(csr_mesh_config_model.o)
 .bss.g_bearer_model_data
                0x000069ce        0x7 ..\mesh_common\mesh\libraries\CSR102x_A05\libcsrmesh.a(csr_mesh_bearer_model.o)
 .bss.g_group_model_data
                0x000069d5        0x7 ..\mesh_common\mesh\libraries\CSR102x_A05\libcsrmesh.a(csr_mesh_group_model.o)
 .bss.ext_data  0x000069dc        0x2 ..\mesh_common\mesh\libraries\CSR102x_A05\libextension_server.a(extension_server_exception.o)
 .bss.ext_data  0x000069de        0x2 ..\mesh_common\mesh\libraries\CSR102x_A05\libextension_client.a(extension_client_exception.o)
 .bss.action_prepared
                0x000069e0        0x1 ..\mesh_common\mesh\libraries\CSR102x_A05\libaction_server.a(action_server_exception.o)
 .bss.msg_info  0x000069e1        0x3 ..\mesh_common\mesh\libraries\CSR102x_A05\libaction_server.a(action_server_exception.o)
 .bss.mcp_msg   0x000069e4        0xb ..\mesh_common\mesh\libraries\CSR102x_A05\libaction_server.a(action_server_exception.o)
 .bss.patched_ir_instances
                0x000069ef        0xc D:\CSR102x_SDK-3.1.1\tools\lib\CSR102x_A05\libgatt_lib_ram.a(patch_reset.o)
 .bss.__PATCH__ZERO_
                0x000069fb        0x1 D:\CSR102x_SDK-3.1.1\tools\lib\CSR102x_A05\libgatt_lib_ram.a(sw_patch_ram.o)
                0x000069fb                __PATCH__ZERO_
 .bss.g_uart_pios
                0x000069fc        0x2 D:\CSR102x_SDK-3.1.1\tools\lib\CSR102x_A05\libgatt_lib_ram.a(patch_uci_uart_h4.o)
                0x000069fc                g_uart_pios
 .bss.g_uart_baud_rate
                0x000069fe        0x1 D:\CSR102x_SDK-3.1.1\tools\lib\CSR102x_A05\libgatt_lib_ram.a(patch_uci_uart_h4.o)
                0x000069fe                g_uart_baud_rate
 .bss.is_first_chunk
                0x000069ff        0x1 D:\CSR102x_SDK-3.1.1\tools\lib\CSR102x_A05\libgatt_lib_ram.a(patch_store_update_api.o)
 .bss.rng_instance_extra
                0x00006a00       0x1a D:\CSR102x_SDK-3.1.1\tools\lib\CSR102x_A05\libgatt_lib_ram.a(patch_rand.o)
 .bss.pending_msgs
                0x00006a1a        0x5 D:\CSR102x_SDK-3.1.1\tools\lib\CSR102x_A05\libgatt_lib_ram.a(patch_keyscan.o)
 .bss.status_reg_size
                0x00006a1f        0x1 D:\CSR102x_SDK-3.1.1\tools\lib\CSR102x_A05\libgatt_lib_ram.a(patch_smem.o)
 .bss.bp_disable_status_reg_value
                0x00006a20        0x1 D:\CSR102x_SDK-3.1.1\tools\lib\CSR102x_A05\libgatt_lib_ram.a(patch_smem.o)
 .bss.bleradio_package_type
                0x00006a21        0x1 D:\CSR102x_SDK-3.1.1\tools\lib\CSR102x_A05\libgatt_lib_ram.a(patch_blelo.o)
                0x00006a21                bleradio_package_type
 .bss.bg_ints   0x00006a22        0x3 D:\CSR102x_SDK-3.1.1\tools\lib\CSR102x_A05\libgatt_lib_ram.a(patch_bg_int.o)
 .bss.i2c_slave_state
                0x00006a25        0x1 D:\CSR102x_SDK-3.1.1\tools\lib\CSR102x_A05\libgatt_lib_ram.a(patch_i2c.o)
 .bss.irq_status_copy
                0x00006a26        0x1 D:\CSR102x_SDK-3.1.1\tools\lib\CSR102x_A05\libgatt_lib_ram.a(patch_i2c.o)
 .bss.transaction_success
                0x00006a27        0x1 D:\CSR102x_SDK-3.1.1\tools\lib\CSR102x_A05\libgatt_lib_ram.a(patch_i2c.o)
 .bss.event_data
                0x00006a28        0x4 D:\CSR102x_SDK-3.1.1\tools\lib\CSR102x_A05\libgatt_lib_ram.a(patch_i2c.o)
 .bss.i2c_slave_address
                0x00006a2c        0x1 D:\CSR102x_SDK-3.1.1\tools\lib\CSR102x_A05\libgatt_lib_ram.a(patch_i2c.o)
 .bss.bt_timer_id
                0x00006a2d        0x1 D:\CSR102x_SDK-3.1.1\tools\lib\CSR102x_A05\libgatt_lib_ram.a(patch_george.o)
 .bss.direct_test_receive_ra
                0x00006a2e        0x2 D:\CSR102x_SDK-3.1.1\tools\lib\CSR102x_A05\libgatt_lib_ram.a(patch_george_test.o)
 .bss.direct_test_transmit_ra
                0x00006a30        0x2 D:\CSR102x_SDK-3.1.1\tools\lib\CSR102x_A05\libgatt_lib_ram.a(patch_george_test.o)
 .bss.pte_xtal_wake_reconfigured
                0x00006a32        0x1 D:\CSR102x_SDK-3.1.1\tools\lib\CSR102x_A05\libgatt_lib_ram.a(patch_main.o)
                0x00006a32                pte_xtal_wake_reconfigured
 *(COMMON)
 COMMON         0x00006a33        0xb depend_Release_CSR102x_A05\nvm_access.o
                0x00006a33                secureKeyInfo
 COMMON         0x00006a3e        0x5 depend_Release_CSR102x_A05\attention_model_handler.o
                0x00006a3e                switch_model_groups
                0x00006a3f                lot_model_groups
                0x00006a40                data_model_groups
                0x00006a41                attention_model_groups
                0x00006a42                wdog_model_groups
 COMMON         0x00006a43        0x3 depend_Release_CSR102x_A05\core_mesh_handler.o
                0x00006a43                g_cskey_flags
                0x00006a44                g_app_nvm_offset
                0x00006a45                g_app_nvm_fresh
 COMMON         0x00006a46       0x51 depend_Release_CSR102x_A05\advertisement_handler.o
                0x00006a46                ad_data
                0x00006a65                g_lot_service_id
                0x00006a75                advert_timer_value
                0x00006a77                scan_rsp_data
                0x00006a96                gatt_advert_tid
 COMMON         0x00006a97       0x21 depend_Release_CSR102x_A05\largeobjecttransfer_model_handler.o
                0x00006a97                status_appstore2
                0x00006a98                interest_data
                0x00006aa0                status_userstore3
                0x00006aa1                store_info_appstore1
                0x00006aa5                status_appstore1
                0x00006aa6                store_info_userstore3
                0x00006aaa                store_info_appstore2
                0x00006aae                g_lot_announce
 COMMON         0x00006ab8        0x1 depend_Release_CSR102x_A05\app_otau_handler.o
                0x00006ab8                old_version
 COMMON         0x00006ab9       0x1e depend_Release_CSR102x_A05\mesh_control_service.o
                0x00006ab9                g_mesh_svc_data
 COMMON         0x00006ad7        0xc depend_Release_CSR102x_A05\main_app.o
                0x00006ad7                cached_auth_code
                0x00006adb                cached_uuid
 COMMON         0x00006ae3       0xa9 depend_Release_CSR102x_A05\app_mesh_handler.o
                0x00006ae3                g_mesh_handler_data
                0x00006aed                le_params
                0x00006afc                tx_queue_buffer
 COMMON         0x00006b8c        0x1 depend_Release_CSR102x_A05\app_hw.o
                0x00006b8c                debounce_tid
 COMMON         0x00006b8d       0x7f ..\mesh_common\mesh\libraries\CSR102x_A05\libcsrmesh.a(csr_mesh.o)
                0x00006b8d                g_mesh_data
                0x00006b9d                g_mesh_context_data
 COMMON         0x00006c0c        0x8 ..\mesh_common\mesh\libraries\CSR102x_A05\libcsrmesh.a(csr_mesh_masp_mcp_common.o)
                0x00006c0c                g_device_hash
 COMMON         0x00006c14       0x22 ..\mesh_common\mesh\libraries\CSR102x_A05\libcsrmesh.a(csr_mesh_mtl.o)
                0x00006c14                mtl_operational_buffer
 COMMON         0x00006c36       0x15 ..\mesh_common\mesh\libraries\CSR102x_A05\libcsrmesh.a(csr_mesh_bearer.o)
                0x00006c36                g_le_bearer_data
                0x00006c40                g_gatt_bearer_data
 COMMON         0x00006c4b        0x9 ..\mesh_common\mesh\libraries\CSR102x_A05\liblight_client.a(light_client.o)
                0x00006c4b                g_light_client_data
 COMMON         0x00006c54        0x9 ..\mesh_common\mesh\libraries\CSR102x_A05\libpower_client.a(power_client.o)
                0x00006c54                g_power_client_data
 COMMON         0x00006c5d        0x9 ..\mesh_common\mesh\libraries\CSR102x_A05\libswitch_server.a(switch_model.o)
                0x00006c5d                g_switch_model_data
 COMMON         0x00006c66        0x9 ..\mesh_common\mesh\libraries\CSR102x_A05\libextension_server.a(extension_model.o)
                0x00006c66                g_extension_model_data
 COMMON         0x00006c6f        0x9 ..\mesh_common\mesh\libraries\CSR102x_A05\libextension_client.a(extension_client.o)
                0x00006c6f                g_extension_client_data
 COMMON         0x00006c78        0x9 ..\mesh_common\mesh\libraries\CSR102x_A05\libtime_client.a(time_client.o)
                0x00006c78                g_time_client_data
 COMMON         0x00006c81        0x9 ..\mesh_common\mesh\libraries\CSR102x_A05\libtime_server.a(time_model.o)
                0x00006c81                g_time_model_data
 COMMON         0x00006c8a        0x9 ..\mesh_common\mesh\libraries\CSR102x_A05\libaction_server.a(action_model.o)
                0x00006c8a                g_action_model_data
 COMMON         0x00006c93        0x9 ..\mesh_common\mesh\libraries\CSR102x_A05\libwatchdog_server.a(watchdog_model.o)
                0x00006c93                g_watchdog_model_data
 COMMON         0x00006c9c        0x9 ..\mesh_common\mesh\libraries\CSR102x_A05\libping_server.a(ping_model.o)
                0x00006c9c                g_ping_model_data
 COMMON         0x00006ca5        0x9 ..\mesh_common\mesh\libraries\CSR102x_A05\libattention_server.a(attention_model.o)
                0x00006ca5                g_attention_model_data
 COMMON         0x00006cae        0x9 ..\mesh_common\mesh\libraries\CSR102x_A05\libdata_server.a(data_model.o)
                0x00006cae                g_data_model_data
 COMMON         0x00006cb7        0x9 ..\mesh_common\mesh\libraries\CSR102x_A05\libdata_client.a(data_client.o)
                0x00006cb7                g_data_client_data
 COMMON         0x00006cc0        0x9 ..\mesh_common\mesh\libraries\CSR102x_A05\libbattery_server.a(battery_model.o)
                0x00006cc0                g_battery_model_data
 COMMON         0x00006cc9        0x9 ..\mesh_common\mesh\libraries\CSR102x_A05\liblargeobjecttransfer_server.a(largeobjecttransfer_model.o)
                0x00006cc9                g_largeobjecttransfer_model_data
 COMMON         0x00006cd2        0x1 D:\CSR102x_SDK-3.1.1\tools\lib\CSR102x_A05\libgatt_lib_ram.a(patch_sysop_fht.o)
                0x00006cd2                patch_can_sleep
 COMMON         0x00006cd3        0x7 D:\CSR102x_SDK-3.1.1\tools\lib\CSR102x_A05\libgatt_lib_ram.a(patch_blelo.o)
                0x00006cd3                bleradio_config_min_ico_freq_mhz
                0x00006cd4                bleradio_config_xtal_board_offset
                0x00006cd5                bleradio_config_tx_loop_psrcs
                0x00006cd8                bleradio_config_ibias_at_room
                0x00006cd9                bleradio_config_pshift_ibias
 COMMON         0x00006cda        0x5 D:\CSR102x_SDK-3.1.1\tools\lib\CSR102x_A05\libgatt_lib_ram.a(patch_hal_bleradio.o)
                0x00006cda                last_cal_temperature
 COMMON         0x00006cdf        0x4 D:\CSR102x_SDK-3.1.1\tools\lib\CSR102x_A05\libgatt_lib_ram.a(patch_gap.o)
                0x00006cdf                gap_connection_ltk_available
 COMMON         0x00006ce3        0x1 D:\CSR102x_SDK-3.1.1\tools\lib\CSR102x_A05\libgatt_lib_ram.a(patch_streams.o)
                0x00006ce3                stream_kick_reqd
 *(COMMON.*)
                0x00006ce4                DATA_APPBSS_END = .
                0x00006ce4                DATA_APPDATA_END = .
                0x00000002                DATA_TIMER_SIZE = (DATA_TIMER_END - DATA_TIMER_START)
                0x00000beb                APPBSS_SIZE = SIZEOF (.appbss)
                0x0000e5f9                APPINFO_DATA_ROMHEAP_START = DATA_ROMHEAP_START
                0x00000001                ASSERT (((DATA_APPDATA_END - DATA_APPDATA_START) < DATA_APPDATA_MAX_SIZE), Application uses too much data RAM.)
LOAD d:/csr102x_sdk-3.1.1/tools/bin/../lib/gcc/xap-local-xap/4.3.4\libgcc.a
OUTPUT(depend_Release_CSR102x_A05\csr_mesh_switch_csr102x.elf elf32-xap2)

.debug_abbrev   0x00000000     0x2619
 .debug_abbrev  0x00000000       0x4b depend_Release_CSR102x_A05\app_gatt_db.o
 .debug_abbrev  0x00000096      0x13e depend_Release_CSR102x_A05\conn_param_update.o
 .debug_abbrev  0x00000312      0x122 depend_Release_CSR102x_A05\nvm_access.o
 .debug_abbrev  0x00000556      0x12a depend_Release_CSR102x_A05\cm_common.o
 .debug_abbrev  0x000007a9      0x170 depend_Release_CSR102x_A05\cm_hal.o
 .debug_abbrev  0x00000a88      0x17d depend_Release_CSR102x_A05\cm_private.o
 .debug_abbrev  0x00000d81      0x1aa depend_Release_CSR102x_A05\cm_security.o
 .debug_abbrev  0x000010d5      0x138 depend_Release_CSR102x_A05\cm_server.o
 .debug_abbrev  0x00001344      0x134 depend_Release_CSR102x_A05\cm_observer.o
 .debug_abbrev  0x000015ab      0x174 depend_Release_CSR102x_A05\cm_peripheral.o
 .debug_abbrev  0x00001893       0x70 depend_Release_CSR102x_A05\battery_hw.o
 .debug_abbrev  0x00001972       0xe0 depend_Release_CSR102x_A05\iot_hw.o
 .debug_abbrev  0x00001b31       0xbe depend_Release_CSR102x_A05\csr_mesh_ps_ifce.o
 .debug_abbrev  0x00001cad       0xb4 depend_Release_CSR102x_A05\attention_model_handler.o
 .debug_abbrev  0x00001e14       0x9c depend_Release_CSR102x_A05\battery_model_handler.o
 .debug_abbrev  0x00001f4b      0x104 depend_Release_CSR102x_A05\core_mesh_handler.o
 .debug_abbrev  0x00002152      0x13d depend_Release_CSR102x_A05\data_model_handler.o
 .debug_abbrev  0x000023cb       0xeb depend_Release_CSR102x_A05\watchdog_model_handler.o
 .debug_abbrev  0x000025a1       0x51 depend_Release_CSR102x_A05\app_util.o
 .debug_abbrev  0x00002642      0x150 depend_Release_CSR102x_A05\connection_handler.o
 .debug_abbrev  0x000028e1      0x121 depend_Release_CSR102x_A05\advertisement_handler.o
 .debug_abbrev  0x00002b22      0x129 depend_Release_CSR102x_A05\time_model_handler.o
 .debug_abbrev  0x00002d73      0x16e depend_Release_CSR102x_A05\action_model_handler.o
 .debug_abbrev  0x0000304f      0x12e depend_Release_CSR102x_A05\extension_model_handler.o
 .debug_abbrev  0x000032aa       0xd9 depend_Release_CSR102x_A05\largeobjecttransfer_model_handler.o
 .debug_abbrev  0x0000345b      0x100 depend_Release_CSR102x_A05\app_otau_handler.o
 .debug_abbrev  0x0000365b      0x13e depend_Release_CSR102x_A05\gap_service.o
 .debug_abbrev  0x000038d7      0x11e depend_Release_CSR102x_A05\gatt_service.o
 .debug_abbrev  0x00003b13      0x10a depend_Release_CSR102x_A05\mesh_control_service.o
 .debug_abbrev  0x00003d27       0x76 depend_Release_CSR102x_A05\byte_utils.o
 .debug_abbrev  0x00003e12      0x153 depend_Release_CSR102x_A05\gaia.o
 .debug_abbrev  0x000040b8      0x1a8 depend_Release_CSR102x_A05\gaia_otau.o
 .debug_abbrev  0x00004407      0x134 depend_Release_CSR102x_A05\gaia_service.o
 .debug_abbrev  0x0000466f       0xf0 depend_Release_CSR102x_A05\main_app.o
 .debug_abbrev  0x0000484e      0x14e depend_Release_CSR102x_A05\app_mesh_handler.o
 .debug_abbrev  0x00004aea       0xa4 depend_Release_CSR102x_A05\app_hw.o

.debug_info     0x00000000    0x1523e
 .debug_info    0x00000000       0x6a depend_Release_CSR102x_A05\app_gatt_db.o
 .debug_info    0x000000d3      0xab8 depend_Release_CSR102x_A05\conn_param_update.o
 .debug_info    0x00001643      0xce3 depend_Release_CSR102x_A05\nvm_access.o
 .debug_info    0x00003008     0x1121 depend_Release_CSR102x_A05\cm_common.o
 .debug_info    0x00005249     0x1a3e depend_Release_CSR102x_A05\cm_hal.o
 .debug_info    0x000086c5     0x17b9 depend_Release_CSR102x_A05\cm_private.o
 .debug_info    0x0000b636     0x182c depend_Release_CSR102x_A05\cm_security.o
 .debug_info    0x0000e68d     0x1325 depend_Release_CSR102x_A05\cm_server.o
 .debug_info    0x00010cd7      0xfee depend_Release_CSR102x_A05\cm_observer.o
 .debug_info    0x00012cb2     0x1309 depend_Release_CSR102x_A05\cm_peripheral.o
 .debug_info    0x000152c4       0xcb depend_Release_CSR102x_A05\battery_hw.o
 .debug_info    0x0001545a      0x271 depend_Release_CSR102x_A05\iot_hw.o
 .debug_info    0x0001593b      0x1db depend_Release_CSR102x_A05\csr_mesh_ps_ifce.o
 .debug_info    0x00015cf1      0x3b5 depend_Release_CSR102x_A05\attention_model_handler.o
 .debug_info    0x0001645a      0x34e depend_Release_CSR102x_A05\battery_model_handler.o
 .debug_info    0x00016af5      0x49a depend_Release_CSR102x_A05\core_mesh_handler.o
 .debug_info    0x00017428      0x614 depend_Release_CSR102x_A05\data_model_handler.o
 .debug_info    0x0001804f      0x49d depend_Release_CSR102x_A05\watchdog_model_handler.o
 .debug_info    0x00018988       0xc8 depend_Release_CSR102x_A05\app_util.o
 .debug_info    0x00018b18      0xeb1 depend_Release_CSR102x_A05\connection_handler.o
 .debug_info    0x0001a87a      0x53e depend_Release_CSR102x_A05\advertisement_handler.o
 .debug_info    0x0001b2f5      0x588 depend_Release_CSR102x_A05\time_model_handler.o
 .debug_info    0x0001be04      0x8b2 depend_Release_CSR102x_A05\action_model_handler.o
 .debug_info    0x0001cf68      0x550 depend_Release_CSR102x_A05\extension_model_handler.o
 .debug_info    0x0001da08      0x730 depend_Release_CSR102x_A05\largeobjecttransfer_model_handler.o
 .debug_info    0x0001e868      0x56f depend_Release_CSR102x_A05\app_otau_handler.o
 .debug_info    0x0001f346      0xab2 depend_Release_CSR102x_A05\gap_service.o
 .debug_info    0x000208a9      0xa97 depend_Release_CSR102x_A05\gatt_service.o
 .debug_info    0x00021dd7      0xaeb depend_Release_CSR102x_A05\mesh_control_service.o
 .debug_info    0x000233ad      0x1d8 depend_Release_CSR102x_A05\byte_utils.o
 .debug_info    0x0002375d      0x4df depend_Release_CSR102x_A05\gaia.o
 .debug_info    0x0002411b     0x1285 depend_Release_CSR102x_A05\gaia_otau.o
 .debug_info    0x00026625      0xace depend_Release_CSR102x_A05\gaia_service.o
 .debug_info    0x00027bc0      0xb54 depend_Release_CSR102x_A05\main_app.o
 .debug_info    0x00029267      0x6e7 depend_Release_CSR102x_A05\app_mesh_handler.o
 .debug_info    0x0002a035      0x224 depend_Release_CSR102x_A05\app_hw.o

.debug_line     0x00000000     0x5c89
 .debug_line    0x00000000       0x59 depend_Release_CSR102x_A05\app_gatt_db.o
 .debug_line    0x000000b2      0x25b depend_Release_CSR102x_A05\conn_param_update.o
 .debug_line    0x00000567      0x22d depend_Release_CSR102x_A05\nvm_access.o
 .debug_line    0x000009c0      0x39f depend_Release_CSR102x_A05\cm_common.o
 .debug_line    0x000010fd      0x4ad depend_Release_CSR102x_A05\cm_hal.o
 .debug_line    0x00001a57      0x436 depend_Release_CSR102x_A05\cm_private.o
 .debug_line    0x000022c2      0x4bd depend_Release_CSR102x_A05\cm_security.o
 .debug_line    0x00002c3b      0x24a depend_Release_CSR102x_A05\cm_server.o
 .debug_line    0x000030cf      0x1b2 depend_Release_CSR102x_A05\cm_observer.o
 .debug_line    0x00003432      0x3b6 depend_Release_CSR102x_A05\cm_peripheral.o
 .debug_line    0x00003b9d       0xcb depend_Release_CSR102x_A05\battery_hw.o
 .debug_line    0x00003d33      0x2a5 depend_Release_CSR102x_A05\iot_hw.o
 .debug_line    0x0000427d      0x13b depend_Release_CSR102x_A05\csr_mesh_ps_ifce.o
 .debug_line    0x000044f3      0x157 depend_Release_CSR102x_A05\attention_model_handler.o
 .debug_line    0x000047a1       0xe6 depend_Release_CSR102x_A05\battery_model_handler.o
 .debug_line    0x0000496d      0x280 depend_Release_CSR102x_A05\core_mesh_handler.o
 .debug_line    0x00004e6c      0x323 depend_Release_CSR102x_A05\data_model_handler.o
 .debug_line    0x000054b1      0x21f depend_Release_CSR102x_A05\watchdog_model_handler.o
 .debug_line    0x000058ee       0x67 depend_Release_CSR102x_A05\app_util.o
 .debug_line    0x000059bc      0x3e6 depend_Release_CSR102x_A05\connection_handler.o
 .debug_line    0x00006188      0x266 depend_Release_CSR102x_A05\advertisement_handler.o
 .debug_line    0x00006654      0x2de depend_Release_CSR102x_A05\time_model_handler.o
 .debug_line    0x00006c0f      0x4e4 depend_Release_CSR102x_A05\action_model_handler.o
 .debug_line    0x000075d7      0x261 depend_Release_CSR102x_A05\extension_model_handler.o
 .debug_line    0x00007a98      0x1c7 depend_Release_CSR102x_A05\largeobjecttransfer_model_handler.o
 .debug_line    0x00007e25      0x23f depend_Release_CSR102x_A05\app_otau_handler.o
 .debug_line    0x000082a3      0x1b5 depend_Release_CSR102x_A05\gap_service.o
 .debug_line    0x0000860c      0x1ec depend_Release_CSR102x_A05\gatt_service.o
 .debug_line    0x000089e3      0x23d depend_Release_CSR102x_A05\mesh_control_service.o
 .debug_line    0x00008e5d      0x14f depend_Release_CSR102x_A05\byte_utils.o
 .debug_line    0x000090fa      0x20c depend_Release_CSR102x_A05\gaia.o
 .debug_line    0x00009512      0x754 depend_Release_CSR102x_A05\gaia_otau.o
 .debug_line    0x0000a3b9      0x19f depend_Release_CSR102x_A05\gaia_service.o
 .debug_line    0x0000a6f7      0x192 depend_Release_CSR102x_A05\main_app.o
 .debug_line    0x0000aa1a      0x563 depend_Release_CSR102x_A05\app_mesh_handler.o
 .debug_line    0x0000b4e0      0x219 depend_Release_CSR102x_A05\app_hw.o

.debug_frame    0x00000000     0x114a
 .debug_frame   0x00000000       0x14 depend_Release_CSR102x_A05\app_gatt_db.o
 .debug_frame   0x00000028       0x70 depend_Release_CSR102x_A05\conn_param_update.o
 .debug_frame   0x00000108       0x58 depend_Release_CSR102x_A05\nvm_access.o
 .debug_frame   0x000001b8      0x134 depend_Release_CSR102x_A05\cm_common.o
 .debug_frame   0x00000420      0x1b8 depend_Release_CSR102x_A05\cm_hal.o
 .debug_frame   0x00000790       0xec depend_Release_CSR102x_A05\cm_private.o
 .debug_frame   0x00000968       0xfc depend_Release_CSR102x_A05\cm_security.o
 .debug_frame   0x00000b60       0x78 depend_Release_CSR102x_A05\cm_server.o
 .debug_frame   0x00000c50       0x64 depend_Release_CSR102x_A05\cm_observer.o
 .debug_frame   0x00000d18       0xa4 depend_Release_CSR102x_A05\cm_peripheral.o
 .debug_frame   0x00000e60       0x38 depend_Release_CSR102x_A05\battery_hw.o
 .debug_frame   0x00000ed0       0x68 depend_Release_CSR102x_A05\iot_hw.o
 .debug_frame   0x00000fa0       0x80 depend_Release_CSR102x_A05\csr_mesh_ps_ifce.o
 .debug_frame   0x000010a0       0x38 depend_Release_CSR102x_A05\attention_model_handler.o
 .debug_frame   0x00001110       0x28 depend_Release_CSR102x_A05\battery_model_handler.o
 .debug_frame   0x00001160       0x94 depend_Release_CSR102x_A05\core_mesh_handler.o
 .debug_frame   0x00001288       0x64 depend_Release_CSR102x_A05\data_model_handler.o
 .debug_frame   0x00001350       0x74 depend_Release_CSR102x_A05\watchdog_model_handler.o
 .debug_frame   0x00001438       0x10 depend_Release_CSR102x_A05\app_util.o
 .debug_frame   0x00001458       0x8c depend_Release_CSR102x_A05\connection_handler.o
 .debug_frame   0x00001570       0x4c depend_Release_CSR102x_A05\advertisement_handler.o
 .debug_frame   0x00001608       0x80 depend_Release_CSR102x_A05\time_model_handler.o
 .debug_frame   0x00001708       0xac depend_Release_CSR102x_A05\action_model_handler.o
 .debug_frame   0x00001860       0x68 depend_Release_CSR102x_A05\extension_model_handler.o
 .debug_frame   0x00001930       0x20 depend_Release_CSR102x_A05\largeobjecttransfer_model_handler.o
 .debug_frame   0x00001970       0x4c depend_Release_CSR102x_A05\app_otau_handler.o
 .debug_frame   0x00001a08       0x50 depend_Release_CSR102x_A05\gap_service.o
 .debug_frame   0x00001aa8       0x4c depend_Release_CSR102x_A05\gatt_service.o
 .debug_frame   0x00001b40       0x50 depend_Release_CSR102x_A05\mesh_control_service.o
 .debug_frame   0x00001be0       0x80 depend_Release_CSR102x_A05\byte_utils.o
 .debug_frame   0x00001ce0       0x50 depend_Release_CSR102x_A05\gaia.o
 .debug_frame   0x00001d80      0x122 depend_Release_CSR102x_A05\gaia_otau.o
 .debug_frame   0x00001fc4       0x2c depend_Release_CSR102x_A05\gaia_service.o
 .debug_frame   0x0000201c       0x50 depend_Release_CSR102x_A05\main_app.o
 .debug_frame   0x000020bc       0xa8 depend_Release_CSR102x_A05\app_mesh_handler.o
 .debug_frame   0x0000220c       0x44 depend_Release_CSR102x_A05\app_hw.o

.debug_loc      0x00000000     0x39a1
 .debug_loc     0x00000000       0x1f depend_Release_CSR102x_A05\app_gatt_db.o
 .debug_loc     0x0000003d      0x1a8 depend_Release_CSR102x_A05\conn_param_update.o
 .debug_loc     0x0000038d      0x160 depend_Release_CSR102x_A05\nvm_access.o
 .debug_loc     0x0000064c      0x388 depend_Release_CSR102x_A05\cm_common.o
 .debug_loc     0x00000d5c      0x538 depend_Release_CSR102x_A05\cm_hal.o
 .debug_loc     0x000017cc      0x297 depend_Release_CSR102x_A05\cm_private.o
 .debug_loc     0x00001cf9      0x337 depend_Release_CSR102x_A05\cm_security.o
 .debug_loc     0x00002367      0x14b depend_Release_CSR102x_A05\cm_server.o
 .debug_loc     0x000025fd       0x94 depend_Release_CSR102x_A05\cm_observer.o
 .debug_loc     0x00002724      0x1aa depend_Release_CSR102x_A05\cm_peripheral.o
 .debug_loc     0x00002a78       0x5c depend_Release_CSR102x_A05\battery_hw.o
 .debug_loc     0x00002b30      0x174 depend_Release_CSR102x_A05\iot_hw.o
 .debug_loc     0x00002e18      0x151 depend_Release_CSR102x_A05\csr_mesh_ps_ifce.o
 .debug_loc     0x000030ba       0xa9 depend_Release_CSR102x_A05\attention_model_handler.o
 .debug_loc     0x0000320b       0x71 depend_Release_CSR102x_A05\battery_model_handler.o
 .debug_loc     0x000032ed       0xec depend_Release_CSR102x_A05\core_mesh_handler.o
 .debug_loc     0x000034c4      0x1ab depend_Release_CSR102x_A05\data_model_handler.o
 .debug_loc     0x0000381a      0x191 depend_Release_CSR102x_A05\watchdog_model_handler.o
 .debug_loc     0x00003b3c        0xa depend_Release_CSR102x_A05\app_util.o
 .debug_loc     0x00003b4f      0x16a depend_Release_CSR102x_A05\connection_handler.o
 .debug_loc     0x00003e23      0x100 depend_Release_CSR102x_A05\advertisement_handler.o
 .debug_loc     0x00004023      0x1d5 depend_Release_CSR102x_A05\time_model_handler.o
 .debug_loc     0x000043cc      0x39d depend_Release_CSR102x_A05\action_model_handler.o
 .debug_loc     0x00004b06      0x1b6 depend_Release_CSR102x_A05\extension_model_handler.o
 .debug_loc     0x00004e71       0x9e depend_Release_CSR102x_A05\largeobjecttransfer_model_handler.o
 .debug_loc     0x00004fac      0x113 depend_Release_CSR102x_A05\app_otau_handler.o
 .debug_loc     0x000051d2      0x102 depend_Release_CSR102x_A05\gap_service.o
 .debug_loc     0x000053d5      0x14a depend_Release_CSR102x_A05\gatt_service.o
 .debug_loc     0x00005668      0x156 depend_Release_CSR102x_A05\mesh_control_service.o
 .debug_loc     0x00005914      0x225 depend_Release_CSR102x_A05\byte_utils.o
 .debug_loc     0x00005d5d      0x208 depend_Release_CSR102x_A05\gaia.o
 .debug_loc     0x0000616c      0x532 depend_Release_CSR102x_A05\gaia_otau.o
 .debug_loc     0x00006bd0      0x10a depend_Release_CSR102x_A05\gaia_service.o
 .debug_loc     0x00006de3       0xb2 depend_Release_CSR102x_A05\main_app.o
 .debug_loc     0x00006f47      0x160 depend_Release_CSR102x_A05\app_mesh_handler.o
 .debug_loc     0x00007206       0x9e depend_Release_CSR102x_A05\app_hw.o

.debug_pubnames
                0x00000000     0x1365
 .debug_pubnames
                0x00000000       0x1c depend_Release_CSR102x_A05\app_gatt_db.o
 .debug_pubnames
                0x00000037       0x62 depend_Release_CSR102x_A05\conn_param_update.o
 .debug_pubnames
                0x000000fb       0x46 depend_Release_CSR102x_A05\nvm_access.o
 .debug_pubnames
                0x00000186      0x136 depend_Release_CSR102x_A05\cm_common.o
 .debug_pubnames
                0x000003f2      0x1bf depend_Release_CSR102x_A05\cm_hal.o
 .debug_pubnames
                0x0000076f       0xa0 depend_Release_CSR102x_A05\cm_private.o
 .debug_pubnames
                0x000008af       0xe3 depend_Release_CSR102x_A05\cm_security.o
 .debug_pubnames
                0x00000a75       0x90 depend_Release_CSR102x_A05\cm_server.o
 .debug_pubnames
                0x00000b94       0x88 depend_Release_CSR102x_A05\cm_observer.o
 .debug_pubnames
                0x00000ca3       0x92 depend_Release_CSR102x_A05\cm_peripheral.o
 .debug_pubnames
                0x00000dc7       0x3a depend_Release_CSR102x_A05\battery_hw.o
 .debug_pubnames
                0x00000e3a       0x6d depend_Release_CSR102x_A05\iot_hw.o
 .debug_pubnames
                0x00000f13       0x80 depend_Release_CSR102x_A05\csr_mesh_ps_ifce.o
 .debug_pubnames
                0x00001013       0x60 depend_Release_CSR102x_A05\attention_model_handler.o
 .debug_pubnames
                0x000010d2       0x24 depend_Release_CSR102x_A05\battery_model_handler.o
 .debug_pubnames
                0x00001119       0xd5 depend_Release_CSR102x_A05\core_mesh_handler.o
 .debug_pubnames
                0x000012c3       0x50 depend_Release_CSR102x_A05\data_model_handler.o
 .debug_pubnames
                0x00001362       0xb8 depend_Release_CSR102x_A05\watchdog_model_handler.o
 .debug_pubnames
                0x000014d2       0x4b depend_Release_CSR102x_A05\app_util.o
 .debug_pubnames
                0x00001568       0xe7 depend_Release_CSR102x_A05\connection_handler.o
 .debug_pubnames
                0x00001736       0xa6 depend_Release_CSR102x_A05\advertisement_handler.o
 .debug_pubnames
                0x00001881       0xaa depend_Release_CSR102x_A05\time_model_handler.o
 .debug_pubnames
                0x000019d4       0xa9 depend_Release_CSR102x_A05\action_model_handler.o
 .debug_pubnames
                0x00001b26       0xa0 depend_Release_CSR102x_A05\extension_model_handler.o
 .debug_pubnames
                0x00001c65       0x8b depend_Release_CSR102x_A05\largeobjecttransfer_model_handler.o
 .debug_pubnames
                0x00001d7b       0x61 depend_Release_CSR102x_A05\app_otau_handler.o
 .debug_pubnames
                0x00001e3d       0x31 depend_Release_CSR102x_A05\gap_service.o
 .debug_pubnames
                0x00001e9f       0x35 depend_Release_CSR102x_A05\gatt_service.o
 .debug_pubnames
                0x00001f08       0x42 depend_Release_CSR102x_A05\mesh_control_service.o
 .debug_pubnames
                0x00001f8c       0x72 depend_Release_CSR102x_A05\byte_utils.o
 .debug_pubnames
                0x00002070       0x4d depend_Release_CSR102x_A05\gaia.o
 .debug_pubnames
                0x00002109       0x8e depend_Release_CSR102x_A05\gaia_otau.o
 .debug_pubnames
                0x00002224       0x23 depend_Release_CSR102x_A05\gaia_service.o
 .debug_pubnames
                0x00002269       0x75 depend_Release_CSR102x_A05\main_app.o
 .debug_pubnames
                0x00002352      0x120 depend_Release_CSR102x_A05\app_mesh_handler.o
 .debug_pubnames
                0x00002592       0x9c depend_Release_CSR102x_A05\app_hw.o

.debug_aranges  0x00000000      0x75c
 .debug_aranges
                0x00000000       0x10 depend_Release_CSR102x_A05\app_gatt_db.o
 .debug_aranges
                0x00000020       0x30 depend_Release_CSR102x_A05\conn_param_update.o
 .debug_aranges
                0x00000080       0x2c depend_Release_CSR102x_A05\nvm_access.o
 .debug_aranges
                0x000000d8       0x74 depend_Release_CSR102x_A05\cm_common.o
 .debug_aranges
                0x000001c0       0xa0 depend_Release_CSR102x_A05\cm_hal.o
 .debug_aranges
                0x00000300       0x5c depend_Release_CSR102x_A05\cm_private.o
 .debug_aranges
                0x000003b8       0x64 depend_Release_CSR102x_A05\cm_security.o
 .debug_aranges
                0x00000480       0x34 depend_Release_CSR102x_A05\cm_server.o
 .debug_aranges
                0x000004e8       0x30 depend_Release_CSR102x_A05\cm_observer.o
 .debug_aranges
                0x00000548       0x44 depend_Release_CSR102x_A05\cm_peripheral.o
 .debug_aranges
                0x000005d0       0x1c depend_Release_CSR102x_A05\battery_hw.o
 .debug_aranges
                0x00000608       0x2c depend_Release_CSR102x_A05\iot_hw.o
 .debug_aranges
                0x00000660       0x38 depend_Release_CSR102x_A05\csr_mesh_ps_ifce.o
 .debug_aranges
                0x000006d0       0x1c depend_Release_CSR102x_A05\attention_model_handler.o
 .debug_aranges
                0x00000708       0x18 depend_Release_CSR102x_A05\battery_model_handler.o
 .debug_aranges
                0x00000738       0x40 depend_Release_CSR102x_A05\core_mesh_handler.o
 .debug_aranges
                0x000007b8       0x2c depend_Release_CSR102x_A05\data_model_handler.o
 .debug_aranges
                0x00000810       0x30 depend_Release_CSR102x_A05\watchdog_model_handler.o
 .debug_aranges
                0x00000870       0x10 depend_Release_CSR102x_A05\app_util.o
 .debug_aranges
                0x00000890       0x40 depend_Release_CSR102x_A05\connection_handler.o
 .debug_aranges
                0x00000910       0x24 depend_Release_CSR102x_A05\advertisement_handler.o
 .debug_aranges
                0x00000958       0x34 depend_Release_CSR102x_A05\time_model_handler.o
 .debug_aranges
                0x000009c0       0x44 depend_Release_CSR102x_A05\action_model_handler.o
 .debug_aranges
                0x00000a48       0x2c depend_Release_CSR102x_A05\extension_model_handler.o
 .debug_aranges
                0x00000aa0       0x14 depend_Release_CSR102x_A05\largeobjecttransfer_model_handler.o
 .debug_aranges
                0x00000ac8       0x24 depend_Release_CSR102x_A05\app_otau_handler.o
 .debug_aranges
                0x00000b10       0x24 depend_Release_CSR102x_A05\gap_service.o
 .debug_aranges
                0x00000b58       0x24 depend_Release_CSR102x_A05\gatt_service.o
 .debug_aranges
                0x00000ba0       0x24 depend_Release_CSR102x_A05\mesh_control_service.o
 .debug_aranges
                0x00000be8       0x34 depend_Release_CSR102x_A05\byte_utils.o
 .debug_aranges
                0x00000c50       0x28 depend_Release_CSR102x_A05\gaia.o
 .debug_aranges
                0x00000ca0       0x6c depend_Release_CSR102x_A05\gaia_otau.o
 .debug_aranges
                0x00000d78       0x18 depend_Release_CSR102x_A05\gaia_service.o
 .debug_aranges
                0x00000da8       0x24 depend_Release_CSR102x_A05\main_app.o
 .debug_aranges
                0x00000df0       0x44 depend_Release_CSR102x_A05\app_mesh_handler.o
 .debug_aranges
                0x00000e78       0x20 depend_Release_CSR102x_A05\app_hw.o

.debug_ranges   0x00000000      0x8fc
 .debug_ranges  0x00000000        0xc depend_Release_CSR102x_A05\app_gatt_db.o
 .debug_ranges  0x00000018       0x4c depend_Release_CSR102x_A05\conn_param_update.o
 .debug_ranges  0x000000b0       0x28 depend_Release_CSR102x_A05\nvm_access.o
 .debug_ranges  0x00000100       0x70 depend_Release_CSR102x_A05\cm_common.o
 .debug_ranges  0x000001e0       0x9c depend_Release_CSR102x_A05\cm_hal.o
 .debug_ranges  0x00000318       0x7c depend_Release_CSR102x_A05\cm_private.o
 .debug_ranges  0x00000410       0x88 depend_Release_CSR102x_A05\cm_security.o
 .debug_ranges  0x00000520       0x70 depend_Release_CSR102x_A05\cm_server.o
 .debug_ranges  0x00000600       0x2c depend_Release_CSR102x_A05\cm_observer.o
 .debug_ranges  0x00000658       0x50 depend_Release_CSR102x_A05\cm_peripheral.o
 .debug_ranges  0x000006f8       0x18 depend_Release_CSR102x_A05\battery_hw.o
 .debug_ranges  0x00000728       0x28 depend_Release_CSR102x_A05\iot_hw.o
 .debug_ranges  0x00000778       0x34 depend_Release_CSR102x_A05\csr_mesh_ps_ifce.o
 .debug_ranges  0x000007e0       0x18 depend_Release_CSR102x_A05\attention_model_handler.o
 .debug_ranges  0x00000810       0x14 depend_Release_CSR102x_A05\battery_model_handler.o
 .debug_ranges  0x00000838       0x3c depend_Release_CSR102x_A05\core_mesh_handler.o
 .debug_ranges  0x000008b0       0x38 depend_Release_CSR102x_A05\data_model_handler.o
 .debug_ranges  0x00000920       0x2c depend_Release_CSR102x_A05\watchdog_model_handler.o
 .debug_ranges  0x00000978        0xc depend_Release_CSR102x_A05\app_util.o
 .debug_ranges  0x00000990       0x58 depend_Release_CSR102x_A05\connection_handler.o
 .debug_ranges  0x00000a40       0x38 depend_Release_CSR102x_A05\advertisement_handler.o
 .debug_ranges  0x00000ab0       0x48 depend_Release_CSR102x_A05\time_model_handler.o
 .debug_ranges  0x00000b40       0x84 depend_Release_CSR102x_A05\action_model_handler.o
 .debug_ranges  0x00000c48       0x34 depend_Release_CSR102x_A05\extension_model_handler.o
 .debug_ranges  0x00000cb0       0x10 depend_Release_CSR102x_A05\largeobjecttransfer_model_handler.o
 .debug_ranges  0x00000cd0       0x80 depend_Release_CSR102x_A05\app_otau_handler.o
 .debug_ranges  0x00000dd0       0x20 depend_Release_CSR102x_A05\gap_service.o
 .debug_ranges  0x00000e10       0x30 depend_Release_CSR102x_A05\gatt_service.o
 .debug_ranges  0x00000e70       0x20 depend_Release_CSR102x_A05\mesh_control_service.o
 .debug_ranges  0x00000eb0       0x30 depend_Release_CSR102x_A05\byte_utils.o
 .debug_ranges  0x00000f10       0x38 depend_Release_CSR102x_A05\gaia.o
 .debug_ranges  0x00000f80       0x94 depend_Release_CSR102x_A05\gaia_otau.o
 .debug_ranges  0x000010a8       0x20 depend_Release_CSR102x_A05\gaia_service.o
 .debug_ranges  0x000010e8       0x2c depend_Release_CSR102x_A05\main_app.o
 .debug_ranges  0x00001140       0x40 depend_Release_CSR102x_A05\app_mesh_handler.o
 .debug_ranges  0x000011c0       0x1c depend_Release_CSR102x_A05\app_hw.o

.debug_str      0x00000000     0x7701
 .debug_str     0x00000000       0xa0 depend_Release_CSR102x_A05\app_gatt_db.o
                                 0xba (size before relaxing)
 .debug_str     0x00000140      0xe08 depend_Release_CSR102x_A05\conn_param_update.o
                                0xf01 (size before relaxing)
 .debug_str     0x00001d4f     0x136b depend_Release_CSR102x_A05\nvm_access.o
                               0x1c80 (size before relaxing)
 .debug_str     0x00004425      0x852 depend_Release_CSR102x_A05\cm_common.o
                               0x1685 (size before relaxing)
 .debug_str     0x000054c8      0x830 depend_Release_CSR102x_A05\cm_hal.o
                               0x2c32 (size before relaxing)
 .debug_str     0x00006527      0x1e8 depend_Release_CSR102x_A05\cm_private.o
                               0x2a00 (size before relaxing)
 .debug_str     0x000068f6      0x250 depend_Release_CSR102x_A05\cm_security.o
                               0x29ca (size before relaxing)
 .debug_str     0x00006d96      0x149 depend_Release_CSR102x_A05\cm_server.o
                               0x249d (size before relaxing)
 .debug_str     0x00007027      0x18a depend_Release_CSR102x_A05\cm_observer.o
                               0x22e4 (size before relaxing)
 .debug_str     0x0000733a      0x327 depend_Release_CSR102x_A05\cm_peripheral.o
                               0x279b (size before relaxing)
 .debug_str     0x00007988       0x72 depend_Release_CSR102x_A05\battery_hw.o
                                0x117 (size before relaxing)
 .debug_str     0x00007a6c      0x1da depend_Release_CSR102x_A05\iot_hw.o
                                0x294 (size before relaxing)
 .debug_str     0x00007e1f       0xbc depend_Release_CSR102x_A05\csr_mesh_ps_ifce.o
                                0x16d (size before relaxing)
 .debug_str     0x00007f96      0x7a9 depend_Release_CSR102x_A05\attention_model_handler.o
                                0x87c (size before relaxing)
 .debug_str     0x00008ee7       0x7e depend_Release_CSR102x_A05\battery_model_handler.o
                                0x835 (size before relaxing)
 .debug_str     0x00008fe3      0x61c depend_Release_CSR102x_A05\core_mesh_handler.o
                                0x754 (size before relaxing)
 .debug_str     0x00009c1b      0x264 depend_Release_CSR102x_A05\data_model_handler.o
                                0xa40 (size before relaxing)
 .debug_str     0x0000a0e2      0x12d depend_Release_CSR102x_A05\watchdog_model_handler.o
                                0x91a (size before relaxing)
 .debug_str     0x0000a33c       0xf7 depend_Release_CSR102x_A05\app_util.o
                                0x1cc (size before relaxing)
 .debug_str     0x0000a529      0x23b depend_Release_CSR102x_A05\connection_handler.o
                               0x1322 (size before relaxing)
 .debug_str     0x0000a99f      0x1b6 depend_Release_CSR102x_A05\advertisement_handler.o
                                0xa3a (size before relaxing)
 .debug_str     0x0000ad0b      0x17b depend_Release_CSR102x_A05\time_model_handler.o
                                0x988 (size before relaxing)
 .debug_str     0x0000b001      0x308 depend_Release_CSR102x_A05\action_model_handler.o
                                0xb3a (size before relaxing)
 .debug_str     0x0000b611      0x149 depend_Release_CSR102x_A05\extension_model_handler.o
                                0x93c (size before relaxing)
 .debug_str     0x0000b8a2      0x16c depend_Release_CSR102x_A05\largeobjecttransfer_model_handler.o
                               0x13c0 (size before relaxing)
 .debug_str     0x0000bb7a      0x2e5 depend_Release_CSR102x_A05\app_otau_handler.o
                                0xb3d (size before relaxing)
 .debug_str     0x0000c143       0xa6 depend_Release_CSR102x_A05\gap_service.o
                               0x1020 (size before relaxing)
 .debug_str     0x0000c28f       0xa5 depend_Release_CSR102x_A05\gatt_service.o
                                0xed9 (size before relaxing)
 .debug_str     0x0000c3d8       0x9a depend_Release_CSR102x_A05\mesh_control_service.o
                                0xf9c (size before relaxing)
 .debug_str     0x0000c50c       0x80 depend_Release_CSR102x_A05\byte_utils.o
                                0x12a (size before relaxing)
 .debug_str     0x0000c60c       0xf6 depend_Release_CSR102x_A05\gaia.o
                                0x908 (size before relaxing)
 .debug_str     0x0000c7f7      0xbd8 depend_Release_CSR102x_A05\gaia_otau.o
                               0x274a (size before relaxing)
 .debug_str     0x0000dfa6       0x92 depend_Release_CSR102x_A05\gaia_service.o
                                0xeff (size before relaxing)
 .debug_str     0x0000e0ca      0x1cf depend_Release_CSR102x_A05\main_app.o
                               0x1c86 (size before relaxing)
 .debug_str     0x0000e468      0x3e2 depend_Release_CSR102x_A05\app_mesh_handler.o
                                0x741 (size before relaxing)
 .debug_str     0x0000ec2c       0xeb depend_Release_CSR102x_A05\app_hw.o
                                0x28f (size before relaxing)

.comment        0x00000000      0xe1e
 .comment       0x00000000       0x1a depend_Release_CSR102x_A05\app_gatt_db.o
 .comment       0x0000001a       0x1a depend_Release_CSR102x_A05\conn_param_update.o
 .comment       0x00000034       0x1a depend_Release_CSR102x_A05\nvm_access.o
 .comment       0x0000004e       0x1a depend_Release_CSR102x_A05\cm_common.o
 .comment       0x00000068       0x1a depend_Release_CSR102x_A05\cm_hal.o
 .comment       0x00000082       0x1a depend_Release_CSR102x_A05\cm_private.o
 .comment       0x0000009c       0x1a depend_Release_CSR102x_A05\cm_security.o
 .comment       0x000000b6       0x1a depend_Release_CSR102x_A05\cm_server.o
 .comment       0x000000d0       0x1a depend_Release_CSR102x_A05\cm_observer.o
 .comment       0x000000ea       0x1a depend_Release_CSR102x_A05\cm_peripheral.o
 .comment       0x00000104       0x1a depend_Release_CSR102x_A05\battery_hw.o
 .comment       0x0000011e       0x1a depend_Release_CSR102x_A05\iot_hw.o
 .comment       0x00000138       0x1a depend_Release_CSR102x_A05\csr_mesh_ps_ifce.o
 .comment       0x00000152       0x1a depend_Release_CSR102x_A05\attention_model_handler.o
 .comment       0x0000016c       0x1a depend_Release_CSR102x_A05\battery_model_handler.o
 .comment       0x00000186       0x1a depend_Release_CSR102x_A05\core_mesh_handler.o
 .comment       0x000001a0       0x1a depend_Release_CSR102x_A05\data_model_handler.o
 .comment       0x000001ba       0x1a depend_Release_CSR102x_A05\watchdog_model_handler.o
 .comment       0x000001d4       0x1a depend_Release_CSR102x_A05\app_util.o
 .comment       0x000001ee       0x1a depend_Release_CSR102x_A05\connection_handler.o
 .comment       0x00000208       0x1a depend_Release_CSR102x_A05\advertisement_handler.o
 .comment       0x00000222       0x1a depend_Release_CSR102x_A05\time_model_handler.o
 .comment       0x0000023c       0x1a depend_Release_CSR102x_A05\action_model_handler.o
 .comment       0x00000256       0x1a depend_Release_CSR102x_A05\extension_model_handler.o
 .comment       0x00000270       0x1a depend_Release_CSR102x_A05\largeobjecttransfer_model_handler.o
 .comment       0x0000028a       0x1a depend_Release_CSR102x_A05\app_otau_handler.o
 .comment       0x000002a4       0x1a depend_Release_CSR102x_A05\gap_service.o
 .comment       0x000002be       0x1a depend_Release_CSR102x_A05\gatt_service.o
 .comment       0x000002d8       0x1a depend_Release_CSR102x_A05\mesh_control_service.o
 .comment       0x000002f2       0x1a depend_Release_CSR102x_A05\byte_utils.o
 .comment       0x0000030c       0x1a depend_Release_CSR102x_A05\gaia.o
 .comment       0x00000326       0x1a depend_Release_CSR102x_A05\gaia_otau.o
 .comment       0x00000340       0x1a depend_Release_CSR102x_A05\gaia_service.o
 .comment       0x0000035a       0x1a depend_Release_CSR102x_A05\main_app.o
 .comment       0x00000374       0x1a depend_Release_CSR102x_A05\app_mesh_handler.o
 .comment       0x0000038e       0x1a depend_Release_CSR102x_A05\app_hw.o
 .comment       0x000003a8       0x1a ..\mesh_common\mesh\libraries\CSR102x_A05\libcsrmesh.a(csr_mesh.o)
 .comment       0x000003c2       0x1a ..\mesh_common\mesh\libraries\CSR102x_A05\libcsrmesh.a(csr_mesh_masp_mcp_common.o)
 .comment       0x000003dc       0x1a ..\mesh_common\mesh\libraries\CSR102x_A05\libcsrmesh.a(csr_mesh_mtl.o)
 .comment       0x000003f6       0x1a ..\mesh_common\mesh\libraries\CSR102x_A05\libcsrmesh.a(csr_mesh_ec_alloc.o)
 .comment       0x00000410       0x1a ..\mesh_common\mesh\libraries\CSR102x_A05\libcsrmesh.a(csr_mesh_masp.o)
 .comment       0x0000042a       0x1a ..\mesh_common\mesh\libraries\CSR102x_A05\libcsrmesh.a(csr_mesh_mcp.o)
 .comment       0x00000444       0x1a ..\mesh_common\mesh\libraries\CSR102x_A05\libcsrmesh.a(csr_mesh_sha256_get_results.o)
 .comment       0x0000045e       0x1a ..\mesh_common\mesh\libraries\CSR102x_A05\libcsrmesh.a(csr_mesh_sha256_hmac.o)
 .comment       0x00000478       0x1a ..\mesh_common\mesh\libraries\CSR102x_A05\libcsrmesh.a(csr_mesh_sha256_initialise.o)
 .comment       0x00000492       0x1a ..\mesh_common\mesh\libraries\CSR102x_A05\libcsrmesh.a(csr_mesh_sha256_process_data.o)
 .comment       0x000004ac       0x1a ..\mesh_common\mesh\libraries\CSR102x_A05\libcsrmesh.a(csr_mesh_bearer.o)
 .comment       0x000004c6       0x1a ..\mesh_common\mesh\libraries\CSR102x_A05\libcsrmesh.a(csr_mesh_bearer_porting_util.o)
 .comment       0x000004e0       0x1a ..\mesh_common\mesh\libraries\CSR102x_A05\libcsrmesh.a(csr1010_scheduler.o)
 .comment       0x000004fa       0x1a ..\mesh_common\mesh\libraries\CSR102x_A05\libcsrmesh.a(csr_mesh_hal_ifce.o)
 .comment       0x00000514       0x1a ..\mesh_common\mesh\libraries\CSR102x_A05\libcsrmesh.a(csr_mesh_security_ifce_101x.o)
 .comment       0x0000052e       0x1a ..\mesh_common\mesh\libraries\CSR102x_A05\libcsrmesh.a(csr_mesh_config_model.o)
 .comment       0x00000548       0x1a ..\mesh_common\mesh\libraries\CSR102x_A05\libcsrmesh.a(csr_mesh_bearer_model.o)
 .comment       0x00000562       0x1a ..\mesh_common\mesh\libraries\CSR102x_A05\libcsrmesh.a(csr_mesh_ec_math.o)
 .comment       0x0000057c       0x1a ..\mesh_common\mesh\libraries\CSR102x_A05\libcsrmesh.a(csr_mesh_group_model.o)
 .comment       0x00000596       0x1a ..\mesh_common\mesh\libraries\CSR102x_A05\libcsrmesh.a(csr_mesh_large_num.o)
 .comment       0x000005b0       0x1a ..\mesh_common\mesh\libraries\CSR102x_A05\libcsrmesh.a(csr_mesh_sha_add_to_cache.o)
 .comment       0x000005ca       0x1a ..\mesh_common\mesh\libraries\CSR102x_A05\libcsrmesh.a(csr_mesh_sha256_calc_ith_hash_val.o)
 .comment       0x000005e4       0x1a ..\mesh_common\mesh\libraries\CSR102x_A05\liblight_client.a(light_client.o)
 .comment       0x000005fe       0x1a ..\mesh_common\mesh\libraries\CSR102x_A05\libpower_client.a(power_client.o)
 .comment       0x00000618       0x1a ..\mesh_common\mesh\libraries\CSR102x_A05\libswitch_server.a(switch_model.o)
 .comment       0x00000632       0x1a ..\mesh_common\mesh\libraries\CSR102x_A05\libextension_server.a(extension_model.o)
 .comment       0x0000064c       0x1a ..\mesh_common\mesh\libraries\CSR102x_A05\libextension_server.a(extension_server_exception.o)
 .comment       0x00000666       0x1a ..\mesh_common\mesh\libraries\CSR102x_A05\libextension_client.a(extension_client.o)
 .comment       0x00000680       0x1a ..\mesh_common\mesh\libraries\CSR102x_A05\libextension_client.a(extension_client_exception.o)
 .comment       0x0000069a       0x1a ..\mesh_common\mesh\libraries\CSR102x_A05\libtime_client.a(time_client.o)
 .comment       0x000006b4       0x1a ..\mesh_common\mesh\libraries\CSR102x_A05\libtime_server.a(time_model.o)
 .comment       0x000006ce       0x1a ..\mesh_common\mesh\libraries\CSR102x_A05\libtime_server.a(time_server_exception.o)
 .comment       0x000006e8       0x1a ..\mesh_common\mesh\libraries\CSR102x_A05\libaction_server.a(action_model.o)
 .comment       0x00000702       0x1a ..\mesh_common\mesh\libraries\CSR102x_A05\libaction_server.a(action_server_exception.o)
 .comment       0x0000071c       0x1a ..\mesh_common\mesh\libraries\CSR102x_A05\libwatchdog_server.a(watchdog_model.o)
 .comment       0x00000736       0x1a ..\mesh_common\mesh\libraries\CSR102x_A05\libping_server.a(ping_model.o)
 .comment       0x00000750       0x1a ..\mesh_common\mesh\libraries\CSR102x_A05\libping_server.a(ping_server_exception.o)
 .comment       0x0000076a       0x1a ..\mesh_common\mesh\libraries\CSR102x_A05\libattention_server.a(attention_model.o)
 .comment       0x00000784       0x1a ..\mesh_common\mesh\libraries\CSR102x_A05\libdata_server.a(data_model.o)
 .comment       0x0000079e       0x1a ..\mesh_common\mesh\libraries\CSR102x_A05\libdata_client.a(data_client.o)
 .comment       0x000007b8       0x1a ..\mesh_common\mesh\libraries\CSR102x_A05\libbattery_server.a(battery_model.o)
 .comment       0x000007d2       0x1a ..\mesh_common\mesh\libraries\CSR102x_A05\liblargeobjecttransfer_server.a(largeobjecttransfer_model.o)
 .comment       0x000007ec       0x1a ..\mesh_common\mesh\libraries\CSR102x_A05\liblargeobjecttransfer_server.a(largeobjecttransfer_server_exception.o)
 .comment       0x00000806       0x1a D:\CSR102x_SDK-3.1.1\tools\lib\CSR102x_A05\libgatt_lib_ram.a(patch_ls.o)
 .comment       0x00000820       0x1a D:\CSR102x_SDK-3.1.1\tools\lib\CSR102x_A05\libgatt_lib_ram.a(patch_gatt_api.o)
 .comment       0x0000083a       0x1a D:\CSR102x_SDK-3.1.1\tools\lib\CSR102x_A05\libgatt_lib_ram.a(sm_ram.o)
 .comment       0x00000854       0x1a D:\CSR102x_SDK-3.1.1\tools\lib\CSR102x_A05\libgatt_lib_ram.a(sm_key_req_api.o)
 .comment       0x0000086e       0x1a D:\CSR102x_SDK-3.1.1\tools\lib\CSR102x_A05\libgatt_lib_ram.a(sm_div_approval_api.o)
 .comment       0x00000888       0x1a D:\CSR102x_SDK-3.1.1\tools\lib\CSR102x_A05\libgatt_lib_ram.a(sm_pairing_auth_api.o)
 .comment       0x000008a2       0x1a D:\CSR102x_SDK-3.1.1\tools\lib\CSR102x_A05\libgatt_lib_ram.a(sm_ltk_api.o)
 .comment       0x000008bc       0x1a D:\CSR102x_SDK-3.1.1\tools\lib\CSR102x_A05\libgatt_lib_ram.a(patch_sm_l2cap_if.o)
 .comment       0x000008d6       0x1a D:\CSR102x_SDK-3.1.1\tools\lib\CSR102x_A05\libgatt_lib_ram.a(patch_sm_api.o)
 .comment       0x000008f0       0x1a D:\CSR102x_SDK-3.1.1\tools\lib\CSR102x_A05\libgatt_lib_ram.a(patch_george_rx.o)
 .comment       0x0000090a       0x1a D:\CSR102x_SDK-3.1.1\tools\lib\CSR102x_A05\libgatt_lib_ram.a(patch_george_rssi.o)
 .comment       0x00000924       0x1a D:\CSR102x_SDK-3.1.1\tools\lib\CSR102x_A05\libgatt_lib_ram.a(patch_reset.o)
 .comment       0x0000093e       0x1a D:\CSR102x_SDK-3.1.1\tools\lib\CSR102x_A05\libgatt_lib_ram.a(id_ram.o)
 .comment       0x00000958       0x1a D:\CSR102x_SDK-3.1.1\tools\lib\CSR102x_A05\libgatt_lib_ram.a(sw_patch_ram.o)
 .comment       0x00000972       0x1a D:\CSR102x_SDK-3.1.1\tools\lib\CSR102x_A05\libgatt_lib_ram.a(patch_storage_api.o)
 .comment       0x0000098c       0x1a D:\CSR102x_SDK-3.1.1\tools\lib\CSR102x_A05\libgatt_lib_ram.a(configstore_api.o)
 .comment       0x000009a6       0x1a D:\CSR102x_SDK-3.1.1\tools\lib\CSR102x_A05\libgatt_lib_ram.a(patch_configstore.o)
 .comment       0x000009c0       0x1a D:\CSR102x_SDK-3.1.1\tools\lib\CSR102x_A05\libgatt_lib_ram.a(userstore_api.o)
 .comment       0x000009da       0x1a D:\CSR102x_SDK-3.1.1\tools\lib\CSR102x_A05\libgatt_lib_ram.a(patch_sysop_fht.o)
 .comment       0x000009f4       0x1a D:\CSR102x_SDK-3.1.1\tools\lib\CSR102x_A05\libgatt_lib_ram.a(patch_uci_carlos_map.o)
 .comment       0x00000a0e       0x1a D:\CSR102x_SDK-3.1.1\tools\lib\CSR102x_A05\libgatt_lib_ram.a(patch_uci_uart_h4.o)
 .comment       0x00000a28       0x1a D:\CSR102x_SDK-3.1.1\tools\lib\CSR102x_A05\libgatt_lib_ram.a(patch_store_update_api.o)
 .comment       0x00000a42       0x1a D:\CSR102x_SDK-3.1.1\tools\lib\CSR102x_A05\libgatt_lib_ram.a(patch_rand.o)
 .comment       0x00000a5c       0x1a D:\CSR102x_SDK-3.1.1\tools\lib\CSR102x_A05\libgatt_lib_ram.a(patch_edge_capture.o)
 .comment       0x00000a76       0x1a D:\CSR102x_SDK-3.1.1\tools\lib\CSR102x_A05\libgatt_lib_ram.a(patch_uart.o)
 .comment       0x00000a90       0x1a D:\CSR102x_SDK-3.1.1\tools\lib\CSR102x_A05\libgatt_lib_ram.a(patch_keyscan.o)
 .comment       0x00000aaa       0x1a D:\CSR102x_SDK-3.1.1\tools\lib\CSR102x_A05\libgatt_lib_ram.a(patch_ir.o)
 .comment       0x00000ac4       0x1a D:\CSR102x_SDK-3.1.1\tools\lib\CSR102x_A05\libgatt_lib_ram.a(patch_sysop_clock_fht.o)
 .comment       0x00000ade       0x1a D:\CSR102x_SDK-3.1.1\tools\lib\CSR102x_A05\libgatt_lib_ram.a(patch_sysop_sleep.o)
 .comment       0x00000af8       0x1a D:\CSR102x_SDK-3.1.1\tools\lib\CSR102x_A05\libgatt_lib_ram.a(patch_adc.o)
 .comment       0x00000b12       0x1a D:\CSR102x_SDK-3.1.1\tools\lib\CSR102x_A05\libgatt_lib_ram.a(patch_smem.o)
 .comment       0x00000b2c       0x1a D:\CSR102x_SDK-3.1.1\tools\lib\CSR102x_A05\libgatt_lib_ram.a(patch_bleinit.o)
 .comment       0x00000b46       0x1a D:\CSR102x_SDK-3.1.1\tools\lib\CSR102x_A05\libgatt_lib_ram.a(patch_bletx.o)
 .comment       0x00000b60       0x1a D:\CSR102x_SDK-3.1.1\tools\lib\CSR102x_A05\libgatt_lib_ram.a(patch_blerx.o)
 .comment       0x00000b7a       0x1a D:\CSR102x_SDK-3.1.1\tools\lib\CSR102x_A05\libgatt_lib_ram.a(patch_blelo.o)
 .comment       0x00000b94       0x1a D:\CSR102x_SDK-3.1.1\tools\lib\CSR102x_A05\libgatt_lib_ram.a(patch_hal_bleradio.o)
 .comment       0x00000bae       0x1a D:\CSR102x_SDK-3.1.1\tools\lib\CSR102x_A05\libgatt_lib_ram.a(patch_sched.o)
 .comment       0x00000bc8       0x1a D:\CSR102x_SDK-3.1.1\tools\lib\CSR102x_A05\libgatt_lib_ram.a(patch_bg_int.o)
 .comment       0x00000be2       0x1a D:\CSR102x_SDK-3.1.1\tools\lib\CSR102x_A05\libgatt_lib_ram.a(patch_crypt_utils.o)
 .comment       0x00000bfc       0x1a D:\CSR102x_SDK-3.1.1\tools\lib\CSR102x_A05\libgatt_lib_ram.a(patch_ls_hci_if.o)
 .comment       0x00000c16       0x1a D:\CSR102x_SDK-3.1.1\tools\lib\CSR102x_A05\libgatt_lib_ram.a(patch_gap.o)
 .comment       0x00000c30       0x1a D:\CSR102x_SDK-3.1.1\tools\lib\CSR102x_A05\libgatt_lib_ram.a(patch_ls_app_if.o)
 .comment       0x00000c4a       0x1a D:\CSR102x_SDK-3.1.1\tools\lib\CSR102x_A05\libgatt_lib_ram.a(patch_att.o)
 .comment       0x00000c64       0x1a D:\CSR102x_SDK-3.1.1\tools\lib\CSR102x_A05\libgatt_lib_ram.a(patch_gatt_common.o)
 .comment       0x00000c7e       0x1a D:\CSR102x_SDK-3.1.1\tools\lib\CSR102x_A05\libgatt_lib_ram.a(patch_gatt_server_indications.o)
 .comment       0x00000c98       0x1a D:\CSR102x_SDK-3.1.1\tools\lib\CSR102x_A05\libgatt_lib_ram.a(patch_sm_msg_handler.o)
 .comment       0x00000cb2       0x1a D:\CSR102x_SDK-3.1.1\tools\lib\CSR102x_A05\libgatt_lib_ram.a(patch_i2c.o)
 .comment       0x00000ccc       0x1a D:\CSR102x_SDK-3.1.1\tools\lib\CSR102x_A05\libgatt_lib_ram.a(patch_lm.o)
 .comment       0x00000ce6       0x1a D:\CSR102x_SDK-3.1.1\tools\lib\CSR102x_A05\libgatt_lib_ram.a(patch_streams.o)
 .comment       0x00000d00       0x1a D:\CSR102x_SDK-3.1.1\tools\lib\CSR102x_A05\libgatt_lib_ram.a(patch_george.o)
 .comment       0x00000d1a       0x1a D:\CSR102x_SDK-3.1.1\tools\lib\CSR102x_A05\libgatt_lib_ram.a(patch_george_adv.o)
 .comment       0x00000d34       0x1a D:\CSR102x_SDK-3.1.1\tools\lib\CSR102x_A05\libgatt_lib_ram.a(patch_george_reset.o)
 .comment       0x00000d4e       0x1a D:\CSR102x_SDK-3.1.1\tools\lib\CSR102x_A05\libgatt_lib_ram.a(patch_george_test.o)
 .comment       0x00000d68       0x1a D:\CSR102x_SDK-3.1.1\tools\lib\CSR102x_A05\libgatt_lib_ram.a(patch_george_updates.o)
 .comment       0x00000d82       0x1a D:\CSR102x_SDK-3.1.1\tools\lib\CSR102x_A05\libgatt_lib_ram.a(patch_george_scheduler.o)
 .comment       0x00000d9c       0x1a D:\CSR102x_SDK-3.1.1\tools\lib\CSR102x_A05\libgatt_lib_ram.a(patch_george_ll.o)
 .comment       0x00000db6       0x1a D:\CSR102x_SDK-3.1.1\tools\lib\CSR102x_A05\libgatt_lib_ram.a(patch_george_interrupt.o)
 .comment       0x00000dd0       0x1a D:\CSR102x_SDK-3.1.1\tools\lib\CSR102x_A05\libgatt_lib_ram.a(patch_main.o)
 .comment       0x00000dea       0x1a D:\CSR102x_SDK-3.1.1\tools\lib\CSR102x_A05\libgatt_lib_ram.a(app_proxy_init.o)
 .comment       0x00000e04       0x1a D:\CSR102x_SDK-3.1.1\tools\lib\CSR102x_A05\libgatt_lib_ram.a(hw_patch_install.o)
